
build/ch.elf:     file format elf32-littlearm


Disassembly of section .vectors:

08000000 <__vectors_base__>:
 8000000:	20000400 	.word	0x20000400
 8000004:	08000239 	.word	0x08000239
 8000008:	0800023b 	.word	0x0800023b
 800000c:	0800023b 	.word	0x0800023b
 8000010:	0800023b 	.word	0x0800023b
 8000014:	0800023b 	.word	0x0800023b
 8000018:	0800023b 	.word	0x0800023b
 800001c:	0800023b 	.word	0x0800023b
 8000020:	0800023b 	.word	0x0800023b
 8000024:	0800023b 	.word	0x0800023b
 8000028:	0800023b 	.word	0x0800023b
 800002c:	08001de1 	.word	0x08001de1
 8000030:	0800023b 	.word	0x0800023b
 8000034:	0800023b 	.word	0x0800023b
 8000038:	0800023b 	.word	0x0800023b
 800003c:	08001181 	.word	0x08001181
 8000040:	0800023b 	.word	0x0800023b
 8000044:	0800023b 	.word	0x0800023b
 8000048:	0800023b 	.word	0x0800023b
 800004c:	0800023b 	.word	0x0800023b
 8000050:	0800023b 	.word	0x0800023b
 8000054:	0800023b 	.word	0x0800023b
 8000058:	08000b31 	.word	0x08000b31
 800005c:	08000ba1 	.word	0x08000ba1
 8000060:	08000c11 	.word	0x08000c11
 8000064:	08000c81 	.word	0x08000c81
 8000068:	08000cf1 	.word	0x08000cf1
 800006c:	0800023b 	.word	0x0800023b
 8000070:	0800023b 	.word	0x0800023b
 8000074:	0800023b 	.word	0x0800023b
 8000078:	0800023b 	.word	0x0800023b
 800007c:	0800023b 	.word	0x0800023b
 8000080:	0800023b 	.word	0x0800023b
 8000084:	0800023b 	.word	0x0800023b
 8000088:	0800023b 	.word	0x0800023b
 800008c:	0800023b 	.word	0x0800023b
 8000090:	0800023b 	.word	0x0800023b
 8000094:	0800023b 	.word	0x0800023b
 8000098:	0800023b 	.word	0x0800023b
 800009c:	08000d61 	.word	0x08000d61
 80000a0:	0800023b 	.word	0x0800023b
 80000a4:	0800023b 	.word	0x0800023b
 80000a8:	0800023b 	.word	0x0800023b
 80000ac:	0800023b 	.word	0x0800023b
 80000b0:	0800023b 	.word	0x0800023b
 80000b4:	0800023b 	.word	0x0800023b
 80000b8:	0800023b 	.word	0x0800023b
 80000bc:	0800023b 	.word	0x0800023b
 80000c0:	0800023b 	.word	0x0800023b
 80000c4:	0800023b 	.word	0x0800023b
 80000c8:	0800023b 	.word	0x0800023b
 80000cc:	0800023b 	.word	0x0800023b
 80000d0:	0800023b 	.word	0x0800023b
 80000d4:	0800023b 	.word	0x0800023b
 80000d8:	0800023b 	.word	0x0800023b
 80000dc:	0800023b 	.word	0x0800023b
 80000e0:	08000f31 	.word	0x08000f31
 80000e4:	0800023b 	.word	0x0800023b
 80000e8:	0800023b 	.word	0x0800023b
 80000ec:	0800023b 	.word	0x0800023b
 80000f0:	0800023b 	.word	0x0800023b
 80000f4:	0800023b 	.word	0x0800023b
 80000f8:	0800023b 	.word	0x0800023b
 80000fc:	0800023b 	.word	0x0800023b
 8000100:	0800023b 	.word	0x0800023b
 8000104:	0800023b 	.word	0x0800023b
 8000108:	0800023b 	.word	0x0800023b
 800010c:	0800023b 	.word	0x0800023b
 8000110:	0800023b 	.word	0x0800023b
 8000114:	0800023b 	.word	0x0800023b
 8000118:	0800023b 	.word	0x0800023b
 800011c:	0800023b 	.word	0x0800023b
 8000120:	0800023b 	.word	0x0800023b
 8000124:	0800023b 	.word	0x0800023b
 8000128:	0800023b 	.word	0x0800023b
 800012c:	0800023b 	.word	0x0800023b
 8000130:	0800023b 	.word	0x0800023b
 8000134:	0800023b 	.word	0x0800023b
 8000138:	0800023b 	.word	0x0800023b
 800013c:	0800023b 	.word	0x0800023b
 8000140:	0800023b 	.word	0x0800023b
 8000144:	0800023b 	.word	0x0800023b
 8000148:	0800023b 	.word	0x0800023b
 800014c:	0800023b 	.word	0x0800023b
 8000150:	0800023b 	.word	0x0800023b
 8000154:	0800023b 	.word	0x0800023b
 8000158:	0800023b 	.word	0x0800023b
 800015c:	0800023b 	.word	0x0800023b

Disassembly of section .text:

08000160 <_crt0_entry>:
                .align  2
                .thumb_func
                .global _crt0_entry
_crt0_entry:
                /* Interrupts are globally masked initially.*/
                cpsid   i
 8000160:	b672      	cpsid	i

#if CRT0_FORCE_MSP_INIT == TRUE
                /* MSP stack pointers initialization.*/
                ldr     r0, =__main_stack_end__
 8000162:	4826      	ldr	r0, [pc, #152]	@ (80001fc <endfiniloop+0x6>)
                msr     MSP, r0
 8000164:	f380 8808 	msr	MSP, r0
#endif

                /* PSP stack pointers initialization.*/
                ldr     r0, =__process_stack_end__
 8000168:	4825      	ldr	r0, [pc, #148]	@ (8000200 <endfiniloop+0xa>)
                msr     PSP, r0
 800016a:	f380 8809 	msr	PSP, r0

#if CRT0_VTOR_INIT == TRUE
                /* Initial VTOR position enforced.*/
                ldr     r0, =_vectors
 800016e:	4825      	ldr	r0, [pc, #148]	@ (8000204 <endfiniloop+0xe>)
                ldr     r1, =SCB_VTOR
 8000170:	4925      	ldr	r1, [pc, #148]	@ (8000208 <endfiniloop+0x12>)
                str     r0, [r1]
 8000172:	6008      	str	r0, [r1, #0]

                /* Enforcing FPCA bit in the CONTROL register.*/
                movs    r0, #CRT0_CONTROL_INIT | CONTROL_FPCA

#else
                movs    r0, #CRT0_CONTROL_INIT
 8000174:	2002      	movs	r0, #2
#endif

                /* CONTROL register initialization as configured.*/
                msr     CONTROL, r0
 8000176:	f380 8814 	msr	CONTROL, r0
                isb
 800017a:	f3bf 8f6f 	isb	sy

#if CRT0_INIT_CORE == TRUE
                /* Core initialization.*/
                bl      __cpu_init
 800017e:	f000 fc8f 	bl	8000aa0 <__cpu_init>
#endif

                /* Early initialization.*/
                bl      __early_init
 8000182:	f001 f845 	bl	8001210 <__early_init>

#if CRT0_INIT_STACKS == TRUE
                ldr     r0, =CRT0_STACKS_FILL_PATTERN
 8000186:	f04f 3055 	mov.w	r0, #1431655765	@ 0x55555555
                /* Main Stack initialization. Note, it assumes that the
                   stack size is a multiple of 4 so the linker file must
                   ensure this.*/
                ldr     r1, =__main_stack_base__
 800018a:	4920      	ldr	r1, [pc, #128]	@ (800020c <endfiniloop+0x16>)
                ldr     r2, =__main_stack_end__
 800018c:	4a1b      	ldr	r2, [pc, #108]	@ (80001fc <endfiniloop+0x6>)

0800018e <msloop>:
msloop:
                cmp     r1, r2
 800018e:	4291      	cmp	r1, r2
                itt     lo
 8000190:	bf3c      	itt	cc
                strlo   r0, [r1], #4
 8000192:	f841 0b04 	strcc.w	r0, [r1], #4
                blo     msloop
 8000196:	e7fa      	bcc.n	800018e <msloop>

                /* Process Stack initialization. Note, it assumes that the
                   stack size is a multiple of 4 so the linker file must
                   ensure this.*/
                ldr     r1, =__process_stack_base__
 8000198:	491d      	ldr	r1, [pc, #116]	@ (8000210 <endfiniloop+0x1a>)
                ldr     r2, =__process_stack_end__
 800019a:	4a19      	ldr	r2, [pc, #100]	@ (8000200 <endfiniloop+0xa>)

0800019c <psloop>:
psloop:
                cmp     r1, r2
 800019c:	4291      	cmp	r1, r2
                itt     lo
 800019e:	bf3c      	itt	cc
                strlo   r0, [r1], #4
 80001a0:	f841 0b04 	strcc.w	r0, [r1], #4
                blo     psloop
 80001a4:	e7fa      	bcc.n	800019c <psloop>

#if CRT0_INIT_DATA == TRUE
                /* Data initialization. Note, it assumes that the DATA
                   size is a multiple of 4 so the linker file must ensure
                   this.*/
                ldr     r1, =__textdata_base__
 80001a6:	491b      	ldr	r1, [pc, #108]	@ (8000214 <endfiniloop+0x1e>)
                ldr     r2, =__data_base__
 80001a8:	4a1b      	ldr	r2, [pc, #108]	@ (8000218 <endfiniloop+0x22>)
                ldr     r3, =__data_end__
 80001aa:	4b1c      	ldr	r3, [pc, #112]	@ (800021c <endfiniloop+0x26>)

080001ac <dloop>:
dloop:
                cmp     r2, r3
 80001ac:	429a      	cmp	r2, r3
                ittt    lo
 80001ae:	bf3e      	ittt	cc
                ldrlo   r0, [r1], #4
 80001b0:	f851 0b04 	ldrcc.w	r0, [r1], #4
                strlo   r0, [r2], #4
 80001b4:	f842 0b04 	strcc.w	r0, [r2], #4
                blo     dloop
 80001b8:	e7f8      	bcc.n	80001ac <dloop>

#if CRT0_INIT_BSS == TRUE
                /* BSS initialization. Note, it assumes that the BSS
                   size is a multiple of 4 so the linker file must ensure
                   this.*/
                movs    r0, #0
 80001ba:	2000      	movs	r0, #0
                ldr     r1, =__bss_base__
 80001bc:	4918      	ldr	r1, [pc, #96]	@ (8000220 <endfiniloop+0x2a>)
                ldr     r2, =__bss_end__
 80001be:	4a19      	ldr	r2, [pc, #100]	@ (8000224 <endfiniloop+0x2e>)

080001c0 <bloop>:
bloop:
                cmp     r1, r2
 80001c0:	4291      	cmp	r1, r2
                itt     lo
 80001c2:	bf3c      	itt	cc
                strlo   r0, [r1], #4
 80001c4:	f841 0b04 	strcc.w	r0, [r1], #4
                blo     bloop
 80001c8:	e7fa      	bcc.n	80001c0 <bloop>
#endif

#if CRT0_INIT_RAM_AREAS == TRUE
                /* RAM areas initialization.*/
                bl      __init_ram_areas
 80001ca:	f000 fc81 	bl	8000ad0 <__init_ram_areas>
#endif

                /* Late initialization..*/
                bl      __late_init
 80001ce:	f000 fc6f 	bl	8000ab0 <__late_init>

#if CRT0_CALL_CONSTRUCTORS == TRUE
                /* Constructors invocation.*/
                ldr     r4, =__init_array_base__
 80001d2:	4c15      	ldr	r4, [pc, #84]	@ (8000228 <endfiniloop+0x32>)
                ldr     r5, =__init_array_end__
 80001d4:	4d15      	ldr	r5, [pc, #84]	@ (800022c <endfiniloop+0x36>)

080001d6 <initloop>:
initloop:
                cmp     r4, r5
 80001d6:	42ac      	cmp	r4, r5
                bge     endinitloop
 80001d8:	da03      	bge.n	80001e2 <endinitloop>
                ldr     r1, [r4], #4
 80001da:	f854 1b04 	ldr.w	r1, [r4], #4
                blx     r1
 80001de:	4788      	blx	r1
                b       initloop
 80001e0:	e7f9      	b.n	80001d6 <initloop>

080001e2 <endinitloop>:
endinitloop:
#endif

                /* Main program invocation, r0 contains the returned value.*/
                bl      main
 80001e2:	f001 fe0d 	bl	8001e00 <main>

#if CRT0_CALL_DESTRUCTORS == TRUE
                /* Destructors invocation.*/
                ldr     r4, =__fini_array_base__
 80001e6:	4c12      	ldr	r4, [pc, #72]	@ (8000230 <endfiniloop+0x3a>)
                ldr     r5, =__fini_array_end__
 80001e8:	4d12      	ldr	r5, [pc, #72]	@ (8000234 <endfiniloop+0x3e>)

080001ea <finiloop>:
finiloop:
                cmp     r4, r5
 80001ea:	42ac      	cmp	r4, r5
                bge     endfiniloop
 80001ec:	da03      	bge.n	80001f6 <endfiniloop>
                ldr     r1, [r4], #4
 80001ee:	f854 1b04 	ldr.w	r1, [r4], #4
                blx     r1
 80001f2:	4788      	blx	r1
                b       finiloop
 80001f4:	e7f9      	b.n	80001ea <finiloop>

080001f6 <endfiniloop>:
endfiniloop:
#endif

                /* Branching to the defined exit handler.*/
                b       __default_exit
 80001f6:	f000 bc63 	b.w	8000ac0 <__default_exit>
 80001fa:	0000      	.short	0x0000
                ldr     r0, =__main_stack_end__
 80001fc:	20000400 	.word	0x20000400
                ldr     r0, =__process_stack_end__
 8000200:	20000800 	.word	0x20000800
                ldr     r0, =_vectors
 8000204:	08000000 	.word	0x08000000
                ldr     r1, =SCB_VTOR
 8000208:	e000ed08 	.word	0xe000ed08
                ldr     r1, =__main_stack_base__
 800020c:	20000000 	.word	0x20000000
                ldr     r1, =__process_stack_base__
 8000210:	20000400 	.word	0x20000400
                ldr     r1, =__textdata_base__
 8000214:	080023dc 	.word	0x080023dc
                ldr     r2, =__data_base__
 8000218:	20000800 	.word	0x20000800
                ldr     r3, =__data_end__
 800021c:	20000800 	.word	0x20000800
                ldr     r1, =__bss_base__
 8000220:	20000800 	.word	0x20000800
                ldr     r2, =__bss_end__
 8000224:	20001dc0 	.word	0x20001dc0
                ldr     r4, =__init_array_base__
 8000228:	08000160 	.word	0x08000160
                ldr     r5, =__init_array_end__
 800022c:	08000160 	.word	0x08000160
                ldr     r4, =__fini_array_base__
 8000230:	08000160 	.word	0x08000160
                ldr     r5, =__fini_array_end__
 8000234:	08000160 	.word	0x08000160

08000238 <Reset_Handler>:

        .align      2
        .thumb_func
        .weak       Reset_Handler
Reset_Handler:
         b          _crt0_entry
 8000238:	e792      	b.n	8000160 <_crt0_entry>

0800023a <BusFault_Handler>:
        .thumb_func
Vector3F8:
        .thumb_func
Vector3FC:
#endif
        bl          _unhandled_exception
 800023a:	f000 f800 	bl	800023e <_unhandled_exception>

0800023e <_unhandled_exception>:

        .thumb_func
        .weak       _unhandled_exception
_unhandled_exception:
.stay:
        b           .stay
 800023e:	e7fe      	b.n	800023e <_unhandled_exception>

08000240 <__port_switch>:
 * Performs a context switch between two threads.
 *--------------------------------------------------------------------------*/
                .thumb_func
                .globl  __port_switch
__port_switch:
                push    {r4, r5, r6, r7, r8, r9, r10, r11, lr}
 8000240:	e92d 4ff0 	stmdb	sp!, {r4, r5, r6, r7, r8, r9, sl, fp, lr}
#if PORT_SWITCHED_REGIONS_NUMBER == 4
                push    {r4, r5, r6, r7, r8, r9, r10, r11}
#endif
#endif

                str     sp, [r1, #CONTEXT_OFFSET]
 8000244:	f8c1 d00c 	str.w	sp, [r1, #12]
#if (CORTEX_SIMPLIFIED_PRIORITY == FALSE) &&                                \
    ((CORTEX_MODEL == 3) || (CORTEX_MODEL == 4))
                /* Workaround for ARM errata 752419, only applied if
                   condition exists for it to be triggered.*/
                ldr     r3, [r0, #CONTEXT_OFFSET]
 8000248:	68c3      	ldr	r3, [r0, #12]
                mov     sp, r3
 800024a:	469d      	mov	sp, r3

#if CORTEX_USE_FPU
                /* Restoring FPU context.*/
                vpop    {s16-s31}
#endif
                pop     {r4, r5, r6, r7, r8, r9, r10, r11, pc}
 800024c:	e8bd 8ff0 	ldmia.w	sp!, {r4, r5, r6, r7, r8, r9, sl, fp, pc}

08000250 <__port_thread_start>:
                bl      __stats_stop_measure_crit_thd
#endif
#if CORTEX_SIMPLIFIED_PRIORITY
                cpsie   i
#else
                movs    r3, #0              /* CORTEX_BASEPRI_DISABLED */
 8000250:	2300      	movs	r3, #0
                msr     BASEPRI, r3
 8000252:	f383 8811 	msr	BASEPRI, r3
#endif
                mov     r0, r5
 8000256:	4628      	mov	r0, r5
                blx     r4
 8000258:	47a0      	blx	r4
                movs    r0, #0              /* MSG_OK */
 800025a:	2000      	movs	r0, #0
                bl      chThdExit
 800025c:	f001 fd78 	bl	8001d50 <chThdExit>

08000260 <.zombies>:
.zombies:       b       .zombies
 8000260:	e7fe      	b.n	8000260 <.zombies>

08000262 <__port_switch_from_isr>:
                bl      __stats_start_measure_crit_thd
#endif
#if CH_DBG_SYSTEM_STATE_CHECK
                bl      __dbg_check_lock
#endif
                bl      chSchDoPreemption
 8000262:	f001 f815 	bl	8001290 <chSchDoPreemption>

08000266 <__port_exit_from_isr>:
                movt    r3, #:upper16:SCB_ICSR
                mov     r2, ICSR_PENDSVSET
                str     r2, [r3, #0]
                cpsie   i
#else /* !CORTEX_SIMPLIFIED_PRIORITY */
                svc     #0
 8000266:	df00      	svc	0
#endif /* !CORTEX_SIMPLIFIED_PRIORITY */
.L1:            b       .L1
 8000268:	e7fe      	b.n	8000268 <__port_exit_from_isr+0x2>
 800026a:	0000      	movs	r0, r0
 800026c:	0000      	movs	r0, r0
	...

08000270 <_pal_lld_setgroupmode>:
  if (mode == PAL_MODE_INPUT_PULLUP)
    port->BSRR = mask;
  else if (mode == PAL_MODE_INPUT_PULLDOWN)
    port->BRR = mask;
  cfg = cfgtab[mode];
  mh = ml = crh = crl = 0;
 8000270:	2300      	movs	r3, #0
                           iomode_t mode) {
 8000272:	b530      	push	{r4, r5, lr}
  cfg = cfgtab[mode];
 8000274:	4d16      	ldr	r5, [pc, #88]	@ (80002d0 <_pal_lld_setgroupmode+0x60>)
  if (mode == PAL_MODE_INPUT_PULLUP)
 8000276:	2a03      	cmp	r2, #3
  cfg = cfgtab[mode];
 8000278:	5cad      	ldrb	r5, [r5, r2]
 800027a:	f04f 0408 	mov.w	r4, #8
  mh = ml = crh = crl = 0;
 800027e:	469c      	mov	ip, r3
 8000280:	461a      	mov	r2, r3
 8000282:	469e      	mov	lr, r3
    port->BSRR = mask;
 8000284:	bf08      	it	eq
 8000286:	6101      	streq	r1, [r0, #16]
  for (i = 0; i < 8; i++) {
    ml <<= 4;
    mh <<= 4;
    crl <<= 4;
    crh <<= 4;
    if ((mask & 0x0080) == 0)
 8000288:	f011 0f80 	tst.w	r1, #128	@ 0x80
    ml <<= 4;
 800028c:	ea4f 1202 	mov.w	r2, r2, lsl #4
    crl <<= 4;
 8000290:	ea4f 1303 	mov.w	r3, r3, lsl #4
    crh <<= 4;
 8000294:	ea4f 1c0c 	mov.w	ip, ip, lsl #4
    mh <<= 4;
 8000298:	ea4f 1e0e 	mov.w	lr, lr, lsl #4
      ml |= 0xf;
 800029c:	bf0c      	ite	eq
 800029e:	f042 020f 	orreq.w	r2, r2, #15
    else
      crl |= cfg;
 80002a2:	432b      	orrne	r3, r5
    if ((mask & 0x8000) == 0)
 80002a4:	f411 4f00 	tst.w	r1, #32768	@ 0x8000
      mh |= 0xf;
 80002a8:	bf0c      	ite	eq
 80002aa:	f04e 0e0f 	orreq.w	lr, lr, #15
    else
      crh |= cfg;
 80002ae:	ea4c 0c05 	orrne.w	ip, ip, r5
  for (i = 0; i < 8; i++) {
 80002b2:	3c01      	subs	r4, #1
    mask <<= 1;
 80002b4:	ea4f 0141 	mov.w	r1, r1, lsl #1
  for (i = 0; i < 8; i++) {
 80002b8:	d1e6      	bne.n	8000288 <_pal_lld_setgroupmode+0x18>
  }
  port->CRH = (port->CRH & mh) | crh;
 80002ba:	6841      	ldr	r1, [r0, #4]
 80002bc:	ea01 010e 	and.w	r1, r1, lr
 80002c0:	ea41 010c 	orr.w	r1, r1, ip
 80002c4:	6041      	str	r1, [r0, #4]
  port->CRL = (port->CRL & ml) | crl;
 80002c6:	6801      	ldr	r1, [r0, #0]
 80002c8:	400a      	ands	r2, r1
 80002ca:	4313      	orrs	r3, r2
 80002cc:	6003      	str	r3, [r0, #0]
}
 80002ce:	bd30      	pop	{r4, r5, pc}
 80002d0:	08002348 	.word	0x08002348
	...

080002e0 <__idle_thread>:
 */
static void __idle_thread(void *p) {

  (void)p;

  while (true) {
 80002e0:	e7fe      	b.n	80002e0 <__idle_thread>
 80002e2:	bf00      	nop
	...

080002f0 <chTMStartMeasurementX>:
 *
 * @return              The realtime counter value.
 */
__STATIC_FORCEINLINE rtcnt_t port_rt_get_counter_value(void) {

  return DWT->CYCCNT;
 80002f0:	4b01      	ldr	r3, [pc, #4]	@ (80002f8 <chTMStartMeasurementX+0x8>)
 80002f2:	685b      	ldr	r3, [r3, #4]
 *
 * @xclass
 */
NOINLINE void chTMStartMeasurementX(time_measurement_t *tmp) {

  tmp->last = chSysGetRealtimeCounterX();
 80002f4:	6083      	str	r3, [r0, #8]
}
 80002f6:	4770      	bx	lr
 80002f8:	e0001000 	.word	0xe0001000
 80002fc:	00000000 	.word	0x00000000

08000300 <chTMStopMeasurementX>:
 8000300:	4b0e      	ldr	r3, [pc, #56]	@ (800033c <chTMStopMeasurementX+0x3c>)
 *
 * @xclass
 */
NOINLINE void chTMStopMeasurementX(time_measurement_t *tmp) {

  tm_stop(tmp, chSysGetRealtimeCounterX(), ch_system.tmc.offset);
 8000302:	4a0f      	ldr	r2, [pc, #60]	@ (8000340 <chTMStopMeasurementX+0x40>)
 8000304:	685b      	ldr	r3, [r3, #4]
 8000306:	6892      	ldr	r2, [r2, #8]
  tmp->last = (now - tmp->last) - offset;
 8000308:	6881      	ldr	r1, [r0, #8]
 800030a:	1a9b      	subs	r3, r3, r2
 800030c:	1a5b      	subs	r3, r3, r1
NOINLINE void chTMStopMeasurementX(time_measurement_t *tmp) {
 800030e:	b410      	push	{r4}
  tmp->n++;
 8000310:	e9d0 4203 	ldrd	r4, r2, [r0, #12]
  tmp->cumulative += (rttime_t)tmp->last;
 8000314:	18d2      	adds	r2, r2, r3
 8000316:	6941      	ldr	r1, [r0, #20]
 8000318:	6102      	str	r2, [r0, #16]
  if (tmp->last > tmp->worst) {
 800031a:	6842      	ldr	r2, [r0, #4]
  tmp->cumulative += (rttime_t)tmp->last;
 800031c:	f141 0100 	adc.w	r1, r1, #0
  if (tmp->last > tmp->worst) {
 8000320:	4293      	cmp	r3, r2
  if (tmp->last < tmp->best) {
 8000322:	6802      	ldr	r2, [r0, #0]
  tmp->n++;
 8000324:	f104 0401 	add.w	r4, r4, #1
    tmp->worst = tmp->last;
 8000328:	bf88      	it	hi
 800032a:	6043      	strhi	r3, [r0, #4]
  if (tmp->last < tmp->best) {
 800032c:	4293      	cmp	r3, r2
  tmp->last = (now - tmp->last) - offset;
 800032e:	e9c0 3402 	strd	r3, r4, [r0, #8]
  tmp->cumulative += (rttime_t)tmp->last;
 8000332:	6141      	str	r1, [r0, #20]
}
 8000334:	bc10      	pop	{r4}
    tmp->best = tmp->last;
 8000336:	bf38      	it	cc
 8000338:	6003      	strcc	r3, [r0, #0]
}
 800033a:	4770      	bx	lr
 800033c:	e0001000 	.word	0xe0001000
 8000340:	20001c28 	.word	0x20001c28
	...

08000350 <chCoreAllocFromTop>:
  \details Assigns the given value to the Base Priority register.
  \param [in]    basePri  Base Priority value to set
 */
__STATIC_FORCEINLINE void __set_BASEPRI(uint32_t basePri)
{
  __ASM volatile ("MSR basepri, %0" : : "r" (basePri) : "memory");
 8000350:	2330      	movs	r3, #48	@ 0x30
 * @return              A pointer to the allocated memory block.
 * @retval NULL         allocation failed, core memory exhausted.
 *
 * @api
 */
void *chCoreAllocFromTop(size_t size, unsigned align, size_t offset) {
 8000352:	b410      	push	{r4}
 8000354:	f383 8811 	msr	BASEPRI, r3
  p = (uint8_t *)MEM_ALIGN_PREV(ch_memcore.topmem - size, align);
 8000358:	4b0b      	ldr	r3, [pc, #44]	@ (8000388 <chCoreAllocFromTop+0x38>)
 800035a:	4249      	negs	r1, r1
 800035c:	685c      	ldr	r4, [r3, #4]
 800035e:	1a20      	subs	r0, r4, r0
 8000360:	4008      	ands	r0, r1
  if ((prev < ch_memcore.basemem) || (prev > ch_memcore.topmem)) {
 8000362:	6819      	ldr	r1, [r3, #0]
  prev = p - offset;
 8000364:	1a82      	subs	r2, r0, r2
  if ((prev < ch_memcore.basemem) || (prev > ch_memcore.topmem)) {
 8000366:	428a      	cmp	r2, r1
 8000368:	d307      	bcc.n	800037a <chCoreAllocFromTop+0x2a>
 800036a:	4294      	cmp	r4, r2
 800036c:	d305      	bcc.n	800037a <chCoreAllocFromTop+0x2a>
  ch_memcore.topmem = prev;
 800036e:	605a      	str	r2, [r3, #4]
 8000370:	2300      	movs	r3, #0
 8000372:	f383 8811 	msr	BASEPRI, r3
  chSysLock();
  p = chCoreAllocFromTopI(size, align, offset);
  chSysUnlock();

  return p;
}
 8000376:	bc10      	pop	{r4}
 8000378:	4770      	bx	lr
    return NULL;
 800037a:	2000      	movs	r0, #0
 800037c:	2300      	movs	r3, #0
 800037e:	f383 8811 	msr	BASEPRI, r3
}
 8000382:	bc10      	pop	{r4}
 8000384:	4770      	bx	lr
 8000386:	bf00      	nop
 8000388:	20001c20 	.word	0x20001c20
 800038c:	00000000 	.word	0x00000000

08000390 <chCoreAllocAlignedI>:
  p = (uint8_t *)MEM_ALIGN_PREV(ch_memcore.topmem - size, align);
 8000390:	4b06      	ldr	r3, [pc, #24]	@ (80003ac <chCoreAllocAlignedI+0x1c>)
 8000392:	4249      	negs	r1, r1
 8000394:	685a      	ldr	r2, [r3, #4]
 8000396:	1a10      	subs	r0, r2, r0
 8000398:	4008      	ands	r0, r1
  if ((prev < ch_memcore.basemem) || (prev > ch_memcore.topmem)) {
 800039a:	6819      	ldr	r1, [r3, #0]
 800039c:	4288      	cmp	r0, r1
 800039e:	d303      	bcc.n	80003a8 <chCoreAllocAlignedI+0x18>
 80003a0:	4282      	cmp	r2, r0
 80003a2:	d301      	bcc.n	80003a8 <chCoreAllocAlignedI+0x18>
  ch_memcore.topmem = prev;
 80003a4:	6058      	str	r0, [r3, #4]
  return p;
 80003a6:	4770      	bx	lr
    return NULL;
 80003a8:	2000      	movs	r0, #0
 * @iclass
 */
static inline void *chCoreAllocAlignedI(size_t size, unsigned align) {

  return chCoreAllocAlignedWithOffsetI(size, align, 0U);
}
 80003aa:	4770      	bx	lr
 80003ac:	20001c20 	.word	0x20001c20

080003b0 <__port_irq_epilogue>:
 80003b0:	2330      	movs	r3, #48	@ 0x30
 80003b2:	f383 8811 	msr	BASEPRI, r3
 * @brief   Exception exit redirection to @p __port_switch_from_isr().
 */
void __port_irq_epilogue(void) {

  port_lock_from_isr();
  if ((SCB->ICSR & SCB_ICSR_RETTOBASE_Msk) != 0U) {
 80003b6:	4b0d      	ldr	r3, [pc, #52]	@ (80003ec <__port_irq_epilogue+0x3c>)
 80003b8:	685b      	ldr	r3, [r3, #4]
 80003ba:	f413 6300 	ands.w	r3, r3, #2048	@ 0x800
 80003be:	d102      	bne.n	80003c6 <__port_irq_epilogue+0x16>
 80003c0:	f383 8811 	msr	BASEPRI, r3
    /* Note, returning without unlocking is intentional, this is done in
       order to keep the rest of the context switch atomic.*/
    return;
  }
  port_unlock_from_isr();
}
 80003c4:	4770      	bx	lr
  __ASM volatile ("MRS %0, psp"  : "=r" (result) );
 80003c6:	f3ef 8309 	mrs	r3, PSP
    ectxp->xpsr = 0x01000000U;
 80003ca:	f04f 7280 	mov.w	r2, #16777216	@ 0x1000000
    s_psp -= sizeof (struct port_extctx);
 80003ce:	3b20      	subs	r3, #32
    ectxp->xpsr = 0x01000000U;
 80003d0:	61da      	str	r2, [r3, #28]
  __ASM volatile ("MSR psp, %0" : : "r" (topOfProcStack) : );
 80003d2:	f383 8809 	msr	PSP, r3
 */
bool chSchIsPreemptionRequired(void) {
  os_instance_t *oip = currcore;
  thread_t *tp = __instance_get_currthread(oip);

  tprio_t p1 = firstprio(&oip->rlist.pqueue);
 80003d6:	4a06      	ldr	r2, [pc, #24]	@ (80003f0 <__port_irq_epilogue+0x40>)
 80003d8:	6811      	ldr	r1, [r2, #0]
  tprio_t p2 = tp->hdr.pqueue.prio;
 80003da:	68d2      	ldr	r2, [r2, #12]
    if (chSchIsPreemptionRequired()) {
 80003dc:	6889      	ldr	r1, [r1, #8]
 80003de:	6892      	ldr	r2, [r2, #8]
 80003e0:	4291      	cmp	r1, r2
      ectxp->pc = (uint32_t)__port_switch_from_isr;
 80003e2:	bf8c      	ite	hi
 80003e4:	4a03      	ldrhi	r2, [pc, #12]	@ (80003f4 <__port_irq_epilogue+0x44>)
      ectxp->pc = (uint32_t)__port_exit_from_isr;
 80003e6:	4a04      	ldrls	r2, [pc, #16]	@ (80003f8 <__port_irq_epilogue+0x48>)
 80003e8:	619a      	str	r2, [r3, #24]
 80003ea:	4770      	bx	lr
 80003ec:	e000ed00 	.word	0xe000ed00
 80003f0:	20001c38 	.word	0x20001c38
 80003f4:	08000263 	.word	0x08000263
 80003f8:	08000266 	.word	0x08000266
 80003fc:	00000000 	.word	0x00000000

08000400 <_pal_lld_enablepadevent.constprop.0>:
                ((EXTI->FTSR & padmask) == 0U), "channel already in use");

  /* Index and mask of the SYSCFG CR register to be used.*/
  cridx  = (uint32_t)pad >> 2U;
  croff = ((uint32_t)pad & 3U) * 4U;
  crmask = ~(0xFU << croff);
 8000400:	f04f 0c0f 	mov.w	ip, #15
  padmask = 1U << (uint32_t)pad;
 8000404:	2201      	movs	r2, #1
void _pal_lld_enablepadevent(ioportid_t port,
 8000406:	b430      	push	{r4, r5}
  /* Port index is obtained assuming that GPIO ports are placed at regular
     0x400 intervals in memory space. So far this is true for all devices.*/
  portidx = (((uint32_t)port - (uint32_t)GPIOA) >> 10U) & 0xFU;

  /* Port selection in SYSCFG.*/
  AFIO->EXTICR[cridx] = (AFIO->EXTICR[cridx] & crmask) | (portidx << croff);
 8000408:	4d0f      	ldr	r5, [pc, #60]	@ (8000448 <_pal_lld_enablepadevent.constprop.0+0x48>)
  croff = ((uint32_t)pad & 3U) * 4U;
 800040a:	f000 0103 	and.w	r1, r0, #3
  AFIO->EXTICR[cridx] = (AFIO->EXTICR[cridx] & crmask) | (portidx << croff);
 800040e:	696c      	ldr	r4, [r5, #20]
  croff = ((uint32_t)pad & 3U) * 4U;
 8000410:	0089      	lsls	r1, r1, #2
  crmask = ~(0xFU << croff);
 8000412:	fa0c fc01 	lsl.w	ip, ip, r1
  AFIO->EXTICR[cridx] = (AFIO->EXTICR[cridx] & crmask) | (portidx << croff);
 8000416:	ea24 040c 	bic.w	r4, r4, ip
 800041a:	fa02 f101 	lsl.w	r1, r2, r1

  /* Programming edge registers.*/
  if (mode & PAL_EVENT_MODE_RISING_EDGE)
    EXTI->RTSR |= padmask;
  else
    EXTI->RTSR &= ~padmask;
 800041e:	4b0b      	ldr	r3, [pc, #44]	@ (800044c <_pal_lld_enablepadevent.constprop.0+0x4c>)
  AFIO->EXTICR[cridx] = (AFIO->EXTICR[cridx] & crmask) | (portidx << croff);
 8000420:	430c      	orrs	r4, r1
 8000422:	616c      	str	r4, [r5, #20]
    EXTI->RTSR &= ~padmask;
 8000424:	6899      	ldr	r1, [r3, #8]
  padmask = 1U << (uint32_t)pad;
 8000426:	fa02 f000 	lsl.w	r0, r2, r0
    EXTI->RTSR &= ~padmask;
 800042a:	ea21 0100 	bic.w	r1, r1, r0
 800042e:	6099      	str	r1, [r3, #8]
  if (mode & PAL_EVENT_MODE_FALLING_EDGE)
    EXTI->FTSR |= padmask;
 8000430:	68da      	ldr	r2, [r3, #12]
    EXTI->FTSR &= ~padmask;

  /* Programming interrupt and event registers.*/
  EXTI->IMR |= padmask;
  EXTI->EMR &= ~padmask;
}
 8000432:	bc30      	pop	{r4, r5}
    EXTI->FTSR |= padmask;
 8000434:	4302      	orrs	r2, r0
 8000436:	60da      	str	r2, [r3, #12]
  EXTI->IMR |= padmask;
 8000438:	681a      	ldr	r2, [r3, #0]
 800043a:	4302      	orrs	r2, r0
 800043c:	601a      	str	r2, [r3, #0]
  EXTI->EMR &= ~padmask;
 800043e:	685a      	ldr	r2, [r3, #4]
 8000440:	ea22 0200 	bic.w	r2, r2, r0
 8000444:	605a      	str	r2, [r3, #4]
}
 8000446:	4770      	bx	lr
 8000448:	40010000 	.word	0x40010000
 800044c:	40010400 	.word	0x40010400

08000450 <resumeTimer>:
        }
    }
}

static void resumeTimer(Timers vt) {
    if(vt == MOTOR_TIMER) {
 8000450:	3802      	subs	r0, #2
static void resumeTimer(Timers vt) {
 8000452:	b4f0      	push	{r4, r5, r6, r7}
 8000454:	2803      	cmp	r0, #3
 8000456:	f200 80c5 	bhi.w	80005e4 <resumeTimer+0x194>
 800045a:	e8df f000 	tbb	[pc, r0]
 800045e:	4409      	.short	0x4409
 8000460:	026d      	.short	0x026d
            chVTSet(&vt_rinse, remainingTime_rinse, rinseTimerCallback, NULL);
            vt_rinse_paused = 0;
        }
    }
    else if(vt == CENTRIFUGE_TIMER) {
        if(vt_centrifuge_paused) {
 8000462:	4d7e      	ldr	r5, [pc, #504]	@ (800065c <resumeTimer+0x20c>)
 8000464:	782b      	ldrb	r3, [r5, #0]
 8000466:	2b00      	cmp	r3, #0
 8000468:	f040 808f 	bne.w	800058a <resumeTimer+0x13a>
            chVTSet(&vt_centrifuge, remainingTime_centrifuge, centrifugeTimerCallback, NULL);
            vt_centrifuge_paused = 0;
        }
    }
}
 800046c:	bcf0      	pop	{r4, r5, r6, r7}
 800046e:	4770      	bx	lr
        if(vt_soak_paused){
 8000470:	4d7b      	ldr	r5, [pc, #492]	@ (8000660 <resumeTimer+0x210>)
 8000472:	782b      	ldrb	r3, [r5, #0]
 8000474:	2b00      	cmp	r3, #0
 8000476:	d0f9      	beq.n	800046c <resumeTimer+0x1c>
            chVTSet(&vt_soak, remainingTime_soak, soakTimerCallback, NULL);
 8000478:	4a7a      	ldr	r2, [pc, #488]	@ (8000664 <resumeTimer+0x214>)
  __ASM volatile ("MSR basepri, %0" : : "r" (basePri) : "memory");
 800047a:	2330      	movs	r3, #48	@ 0x30
 800047c:	6812      	ldr	r2, [r2, #0]
 800047e:	f383 8811 	msr	BASEPRI, r3
 */
static inline bool chVTIsArmedI(const virtual_timer_t *vtp) {

  chDbgCheckClassI();

  return (bool)(vtp->dlist.next != NULL);
 8000482:	4c79      	ldr	r4, [pc, #484]	@ (8000668 <resumeTimer+0x218>)
 8000484:	6823      	ldr	r3, [r4, #0]
 *
 * @iclass
 */
static inline void chVTResetI(virtual_timer_t *vtp) {

  if (chVTIsArmedI(vtp)) {
 8000486:	2b00      	cmp	r3, #0
 8000488:	f000 80a4 	beq.w	80005d4 <resumeTimer+0x184>
  /* The delta of the timer is added to the next timer.*/
  vtp->dlist.next->delta += vtp->dlist.delta;

 /* Removing the element from the delta list, marking it as not armed.*/
  (void) ch_dlist_dequeue(&vtp->dlist);
  vtp->dlist.next = NULL;
 800048c:	2600      	movs	r6, #0

  /* The above code changes the value in the header when the removed element
     is the last of the list, restoring it.*/
  vtlp->dlist.delta = (sysinterval_t)-1;
 800048e:	f04f 37ff 	mov.w	r7, #4294967295
  vtp->dlist.next->delta += vtp->dlist.delta;
 8000492:	68a0      	ldr	r0, [r4, #8]
 8000494:	6899      	ldr	r1, [r3, #8]
 8000496:	4401      	add	r1, r0
 8000498:	6099      	str	r1, [r3, #8]
  vtlp->dlist.delta = (sysinterval_t)-1;
 800049a:	4874      	ldr	r0, [pc, #464]	@ (800066c <resumeTimer+0x21c>)
 *
 * @notapi
 */
static inline ch_delta_list_t *ch_dlist_dequeue(ch_delta_list_t *dlp) {

  dlp->prev->next = dlp->next;
 800049c:	6861      	ldr	r1, [r4, #4]
 800049e:	600b      	str	r3, [r1, #0]
  dlp->next->prev = dlp->prev;
 80004a0:	6059      	str	r1, [r3, #4]
  vtp->dlist.next = NULL;
 80004a2:	6026      	str	r6, [r4, #0]
  vtlp->dlist.delta = (sysinterval_t)-1;
 80004a4:	6187      	str	r7, [r0, #24]
  vtp->par     = par;
 80004a6:	2600      	movs	r6, #0
  vtp->func    = vtfunc;
 80004a8:	4971      	ldr	r1, [pc, #452]	@ (8000670 <resumeTimer+0x220>)
  dlp = dlhp->next;
 80004aa:	6903      	ldr	r3, [r0, #16]
 80004ac:	60e1      	str	r1, [r4, #12]
  while (likely(dlp->delta < delta)) {
 80004ae:	6899      	ldr	r1, [r3, #8]
  vtp->reload  = (sysinterval_t)0;
 80004b0:	e9c4 6604 	strd	r6, r6, [r4, #16]
 80004b4:	428a      	cmp	r2, r1
 80004b6:	d904      	bls.n	80004c2 <resumeTimer+0x72>
    dlp = dlp->next;
 80004b8:	681b      	ldr	r3, [r3, #0]
    delta -= dlp->delta;
 80004ba:	1a52      	subs	r2, r2, r1
  while (likely(dlp->delta < delta)) {
 80004bc:	6899      	ldr	r1, [r3, #8]
 80004be:	4291      	cmp	r1, r2
 80004c0:	d3fa      	bcc.n	80004b8 <resumeTimer+0x68>
  dlhp->delta = (sysinterval_t)-1;
 80004c2:	f04f 36ff 	mov.w	r6, #4294967295
  dlp->delta      = delta;
 80004c6:	60a2      	str	r2, [r4, #8]
  dlp->delta -= delta;
 80004c8:	6899      	ldr	r1, [r3, #8]
  dlp->next       = dlhp;
 80004ca:	6023      	str	r3, [r4, #0]
  dlp->delta -= delta;
 80004cc:	1a89      	subs	r1, r1, r2
  dlp->prev       = dlp->next->prev;
 80004ce:	685a      	ldr	r2, [r3, #4]
 80004d0:	6062      	str	r2, [r4, #4]
  dlp->prev->next = dlp;
 80004d2:	6014      	str	r4, [r2, #0]
  dlp->delta -= delta;
 80004d4:	e9c3 4101 	strd	r4, r1, [r3, #4]
 80004d8:	2300      	movs	r3, #0
  dlhp->delta = (sysinterval_t)-1;
 80004da:	6186      	str	r6, [r0, #24]
 80004dc:	f383 8811 	msr	BASEPRI, r3
            vt_centrifuge_paused = 0;
 80004e0:	702b      	strb	r3, [r5, #0]
}
 80004e2:	bcf0      	pop	{r4, r5, r6, r7}
 80004e4:	4770      	bx	lr
        if(vt_wash_paused) {
 80004e6:	4d63      	ldr	r5, [pc, #396]	@ (8000674 <resumeTimer+0x224>)
 80004e8:	782b      	ldrb	r3, [r5, #0]
 80004ea:	2b00      	cmp	r3, #0
 80004ec:	d0be      	beq.n	800046c <resumeTimer+0x1c>
            chVTSet(&vt_wash, remainingTime_wash, washTimerCallback, NULL);
 80004ee:	4a62      	ldr	r2, [pc, #392]	@ (8000678 <resumeTimer+0x228>)
 80004f0:	2330      	movs	r3, #48	@ 0x30
 80004f2:	6812      	ldr	r2, [r2, #0]
 80004f4:	f383 8811 	msr	BASEPRI, r3
  return (bool)(vtp->dlist.next != NULL);
 80004f8:	4c60      	ldr	r4, [pc, #384]	@ (800067c <resumeTimer+0x22c>)
 80004fa:	6823      	ldr	r3, [r4, #0]
  if (chVTIsArmedI(vtp)) {
 80004fc:	2b00      	cmp	r3, #0
 80004fe:	d06d      	beq.n	80005dc <resumeTimer+0x18c>
  vtp->dlist.next = NULL;
 8000500:	2600      	movs	r6, #0
  vtlp->dlist.delta = (sysinterval_t)-1;
 8000502:	f04f 37ff 	mov.w	r7, #4294967295
  vtp->dlist.next->delta += vtp->dlist.delta;
 8000506:	68a0      	ldr	r0, [r4, #8]
 8000508:	6899      	ldr	r1, [r3, #8]
 800050a:	4401      	add	r1, r0
 800050c:	6099      	str	r1, [r3, #8]
  vtlp->dlist.delta = (sysinterval_t)-1;
 800050e:	4857      	ldr	r0, [pc, #348]	@ (800066c <resumeTimer+0x21c>)
  dlp->prev->next = dlp->next;
 8000510:	6861      	ldr	r1, [r4, #4]
 8000512:	600b      	str	r3, [r1, #0]
  dlp->next->prev = dlp->prev;
 8000514:	6059      	str	r1, [r3, #4]
  vtp->dlist.next = NULL;
 8000516:	6026      	str	r6, [r4, #0]
  vtlp->dlist.delta = (sysinterval_t)-1;
 8000518:	6187      	str	r7, [r0, #24]
  vtp->par     = par;
 800051a:	2600      	movs	r6, #0
  vtp->func    = vtfunc;
 800051c:	4958      	ldr	r1, [pc, #352]	@ (8000680 <resumeTimer+0x230>)
  dlp = dlhp->next;
 800051e:	6903      	ldr	r3, [r0, #16]
 8000520:	60e1      	str	r1, [r4, #12]
  while (likely(dlp->delta < delta)) {
 8000522:	6899      	ldr	r1, [r3, #8]
  vtp->reload  = (sysinterval_t)0;
 8000524:	e9c4 6604 	strd	r6, r6, [r4, #16]
 8000528:	428a      	cmp	r2, r1
 800052a:	d9ca      	bls.n	80004c2 <resumeTimer+0x72>
    dlp = dlp->next;
 800052c:	681b      	ldr	r3, [r3, #0]
    delta -= dlp->delta;
 800052e:	1a52      	subs	r2, r2, r1
  while (likely(dlp->delta < delta)) {
 8000530:	6899      	ldr	r1, [r3, #8]
 8000532:	4291      	cmp	r1, r2
 8000534:	d3fa      	bcc.n	800052c <resumeTimer+0xdc>
 8000536:	e7c4      	b.n	80004c2 <resumeTimer+0x72>
        if(vt_rinse_paused) {
 8000538:	4d52      	ldr	r5, [pc, #328]	@ (8000684 <resumeTimer+0x234>)
 800053a:	782b      	ldrb	r3, [r5, #0]
 800053c:	2b00      	cmp	r3, #0
 800053e:	d095      	beq.n	800046c <resumeTimer+0x1c>
            chVTSet(&vt_rinse, remainingTime_rinse, rinseTimerCallback, NULL);
 8000540:	4a51      	ldr	r2, [pc, #324]	@ (8000688 <resumeTimer+0x238>)
 8000542:	2330      	movs	r3, #48	@ 0x30
 8000544:	6812      	ldr	r2, [r2, #0]
 8000546:	f383 8811 	msr	BASEPRI, r3
  return (bool)(vtp->dlist.next != NULL);
 800054a:	4c50      	ldr	r4, [pc, #320]	@ (800068c <resumeTimer+0x23c>)
 800054c:	6823      	ldr	r3, [r4, #0]
  if (chVTIsArmedI(vtp)) {
 800054e:	2b00      	cmp	r3, #0
 8000550:	d042      	beq.n	80005d8 <resumeTimer+0x188>
  vtp->dlist.next = NULL;
 8000552:	2600      	movs	r6, #0
  vtlp->dlist.delta = (sysinterval_t)-1;
 8000554:	f04f 37ff 	mov.w	r7, #4294967295
  vtp->dlist.next->delta += vtp->dlist.delta;
 8000558:	68a0      	ldr	r0, [r4, #8]
 800055a:	6899      	ldr	r1, [r3, #8]
 800055c:	4401      	add	r1, r0
 800055e:	6099      	str	r1, [r3, #8]
  vtlp->dlist.delta = (sysinterval_t)-1;
 8000560:	4842      	ldr	r0, [pc, #264]	@ (800066c <resumeTimer+0x21c>)
  dlp->prev->next = dlp->next;
 8000562:	6861      	ldr	r1, [r4, #4]
 8000564:	600b      	str	r3, [r1, #0]
  dlp->next->prev = dlp->prev;
 8000566:	6059      	str	r1, [r3, #4]
  vtp->dlist.next = NULL;
 8000568:	6026      	str	r6, [r4, #0]
  vtlp->dlist.delta = (sysinterval_t)-1;
 800056a:	6187      	str	r7, [r0, #24]
  vtp->par     = par;
 800056c:	2600      	movs	r6, #0
  vtp->func    = vtfunc;
 800056e:	4948      	ldr	r1, [pc, #288]	@ (8000690 <resumeTimer+0x240>)
  dlp = dlhp->next;
 8000570:	6903      	ldr	r3, [r0, #16]
 8000572:	60e1      	str	r1, [r4, #12]
  while (likely(dlp->delta < delta)) {
 8000574:	6899      	ldr	r1, [r3, #8]
  vtp->reload  = (sysinterval_t)0;
 8000576:	e9c4 6604 	strd	r6, r6, [r4, #16]
 800057a:	428a      	cmp	r2, r1
 800057c:	d9a1      	bls.n	80004c2 <resumeTimer+0x72>
    dlp = dlp->next;
 800057e:	681b      	ldr	r3, [r3, #0]
    delta -= dlp->delta;
 8000580:	1a52      	subs	r2, r2, r1
  while (likely(dlp->delta < delta)) {
 8000582:	6899      	ldr	r1, [r3, #8]
 8000584:	4291      	cmp	r1, r2
 8000586:	d3fa      	bcc.n	800057e <resumeTimer+0x12e>
 8000588:	e79b      	b.n	80004c2 <resumeTimer+0x72>
            chVTSet(&vt_centrifuge, remainingTime_centrifuge, centrifugeTimerCallback, NULL);
 800058a:	4a42      	ldr	r2, [pc, #264]	@ (8000694 <resumeTimer+0x244>)
 800058c:	2330      	movs	r3, #48	@ 0x30
 800058e:	6812      	ldr	r2, [r2, #0]
 8000590:	f383 8811 	msr	BASEPRI, r3
  return (bool)(vtp->dlist.next != NULL);
 8000594:	4c40      	ldr	r4, [pc, #256]	@ (8000698 <resumeTimer+0x248>)
 8000596:	6823      	ldr	r3, [r4, #0]
  if (chVTIsArmedI(vtp)) {
 8000598:	b313      	cbz	r3, 80005e0 <resumeTimer+0x190>
  vtp->dlist.next = NULL;
 800059a:	2600      	movs	r6, #0
  vtlp->dlist.delta = (sysinterval_t)-1;
 800059c:	f04f 37ff 	mov.w	r7, #4294967295
  vtp->dlist.next->delta += vtp->dlist.delta;
 80005a0:	68a0      	ldr	r0, [r4, #8]
 80005a2:	6899      	ldr	r1, [r3, #8]
 80005a4:	4401      	add	r1, r0
 80005a6:	6099      	str	r1, [r3, #8]
  vtlp->dlist.delta = (sysinterval_t)-1;
 80005a8:	4830      	ldr	r0, [pc, #192]	@ (800066c <resumeTimer+0x21c>)
  dlp->prev->next = dlp->next;
 80005aa:	6861      	ldr	r1, [r4, #4]
 80005ac:	600b      	str	r3, [r1, #0]
  dlp->next->prev = dlp->prev;
 80005ae:	6059      	str	r1, [r3, #4]
  vtp->dlist.next = NULL;
 80005b0:	6026      	str	r6, [r4, #0]
  vtlp->dlist.delta = (sysinterval_t)-1;
 80005b2:	6187      	str	r7, [r0, #24]
  vtp->par     = par;
 80005b4:	2600      	movs	r6, #0
  vtp->func    = vtfunc;
 80005b6:	4939      	ldr	r1, [pc, #228]	@ (800069c <resumeTimer+0x24c>)
  dlp = dlhp->next;
 80005b8:	6903      	ldr	r3, [r0, #16]
 80005ba:	60e1      	str	r1, [r4, #12]
  while (likely(dlp->delta < delta)) {
 80005bc:	6899      	ldr	r1, [r3, #8]
  vtp->reload  = (sysinterval_t)0;
 80005be:	e9c4 6604 	strd	r6, r6, [r4, #16]
 80005c2:	428a      	cmp	r2, r1
 80005c4:	f67f af7d 	bls.w	80004c2 <resumeTimer+0x72>
    dlp = dlp->next;
 80005c8:	681b      	ldr	r3, [r3, #0]
    delta -= dlp->delta;
 80005ca:	1a52      	subs	r2, r2, r1
  while (likely(dlp->delta < delta)) {
 80005cc:	6899      	ldr	r1, [r3, #8]
 80005ce:	4291      	cmp	r1, r2
 80005d0:	d3fa      	bcc.n	80005c8 <resumeTimer+0x178>
 80005d2:	e776      	b.n	80004c2 <resumeTimer+0x72>
 80005d4:	4825      	ldr	r0, [pc, #148]	@ (800066c <resumeTimer+0x21c>)
 80005d6:	e766      	b.n	80004a6 <resumeTimer+0x56>
 80005d8:	4824      	ldr	r0, [pc, #144]	@ (800066c <resumeTimer+0x21c>)
 80005da:	e7c7      	b.n	800056c <resumeTimer+0x11c>
 80005dc:	4823      	ldr	r0, [pc, #140]	@ (800066c <resumeTimer+0x21c>)
 80005de:	e79c      	b.n	800051a <resumeTimer+0xca>
 80005e0:	4822      	ldr	r0, [pc, #136]	@ (800066c <resumeTimer+0x21c>)
 80005e2:	e7e7      	b.n	80005b4 <resumeTimer+0x164>
        if(vt_motor_paused) {
 80005e4:	4d2e      	ldr	r5, [pc, #184]	@ (80006a0 <resumeTimer+0x250>)
 80005e6:	782b      	ldrb	r3, [r5, #0]
 80005e8:	2b00      	cmp	r3, #0
 80005ea:	f43f af3f 	beq.w	800046c <resumeTimer+0x1c>
            chVTSet(&vt_motor, remainingTime_motor, motorTimerCallback, NULL);
 80005ee:	4a2d      	ldr	r2, [pc, #180]	@ (80006a4 <resumeTimer+0x254>)
 80005f0:	2330      	movs	r3, #48	@ 0x30
 80005f2:	6811      	ldr	r1, [r2, #0]
 80005f4:	f383 8811 	msr	BASEPRI, r3
  return (bool)(vtp->dlist.next != NULL);
 80005f8:	4b2b      	ldr	r3, [pc, #172]	@ (80006a8 <resumeTimer+0x258>)
 80005fa:	681a      	ldr	r2, [r3, #0]
  if (chVTIsArmedI(vtp)) {
 80005fc:	2a00      	cmp	r2, #0
 80005fe:	d02b      	beq.n	8000658 <resumeTimer+0x208>
  vtp->dlist.next = NULL;
 8000600:	2400      	movs	r4, #0
  vtlp->dlist.delta = (sysinterval_t)-1;
 8000602:	f04f 36ff 	mov.w	r6, #4294967295
  vtp->dlist.next->delta += vtp->dlist.delta;
 8000606:	6890      	ldr	r0, [r2, #8]
 8000608:	689f      	ldr	r7, [r3, #8]
 800060a:	4438      	add	r0, r7
 800060c:	6090      	str	r0, [r2, #8]
  dlp->prev->next = dlp->next;
 800060e:	6858      	ldr	r0, [r3, #4]
 8000610:	6002      	str	r2, [r0, #0]
  dlp->next->prev = dlp->prev;
 8000612:	6050      	str	r0, [r2, #4]
  vtlp->dlist.delta = (sysinterval_t)-1;
 8000614:	4815      	ldr	r0, [pc, #84]	@ (800066c <resumeTimer+0x21c>)
  vtp->dlist.next = NULL;
 8000616:	601c      	str	r4, [r3, #0]
  vtlp->dlist.delta = (sysinterval_t)-1;
 8000618:	6186      	str	r6, [r0, #24]
  vtp->par     = par;
 800061a:	2600      	movs	r6, #0
  vtp->func    = vtfunc;
 800061c:	4c23      	ldr	r4, [pc, #140]	@ (80006ac <resumeTimer+0x25c>)
  dlp = dlhp->next;
 800061e:	6902      	ldr	r2, [r0, #16]
 8000620:	60dc      	str	r4, [r3, #12]
  while (likely(dlp->delta < delta)) {
 8000622:	6894      	ldr	r4, [r2, #8]
  vtp->reload  = (sysinterval_t)0;
 8000624:	e9c3 6604 	strd	r6, r6, [r3, #16]
 8000628:	42a1      	cmp	r1, r4
 800062a:	d904      	bls.n	8000636 <resumeTimer+0x1e6>
    dlp = dlp->next;
 800062c:	6812      	ldr	r2, [r2, #0]
    delta -= dlp->delta;
 800062e:	1b09      	subs	r1, r1, r4
  while (likely(dlp->delta < delta)) {
 8000630:	6894      	ldr	r4, [r2, #8]
 8000632:	428c      	cmp	r4, r1
 8000634:	d3fa      	bcc.n	800062c <resumeTimer+0x1dc>
  dlhp->delta = (sysinterval_t)-1;
 8000636:	f04f 36ff 	mov.w	r6, #4294967295
  dlp->delta      = delta;
 800063a:	6099      	str	r1, [r3, #8]
  dlp->delta -= delta;
 800063c:	6894      	ldr	r4, [r2, #8]
  dlp->next       = dlhp;
 800063e:	601a      	str	r2, [r3, #0]
  dlp->delta -= delta;
 8000640:	1a64      	subs	r4, r4, r1
  dlp->prev       = dlp->next->prev;
 8000642:	6851      	ldr	r1, [r2, #4]
 8000644:	6059      	str	r1, [r3, #4]
  dlp->prev->next = dlp;
 8000646:	600b      	str	r3, [r1, #0]
  dlp->delta -= delta;
 8000648:	e9c2 3401 	strd	r3, r4, [r2, #4]
 800064c:	2300      	movs	r3, #0
  dlhp->delta = (sysinterval_t)-1;
 800064e:	6186      	str	r6, [r0, #24]
 8000650:	f383 8811 	msr	BASEPRI, r3
            vt_motor_paused = 0;
 8000654:	702b      	strb	r3, [r5, #0]
 8000656:	e709      	b.n	800046c <resumeTimer+0x1c>
 8000658:	4804      	ldr	r0, [pc, #16]	@ (800066c <resumeTimer+0x21c>)
 800065a:	e7de      	b.n	800061a <resumeTimer+0x1ca>
 800065c:	20001b98 	.word	0x20001b98
 8000660:	20001bf8 	.word	0x20001bf8
 8000664:	20001bf4 	.word	0x20001bf4
 8000668:	20001bdc 	.word	0x20001bdc
 800066c:	20001c38 	.word	0x20001c38
 8000670:	08000751 	.word	0x08000751
 8000674:	20001bd8 	.word	0x20001bd8
 8000678:	20001bd4 	.word	0x20001bd4
 800067c:	20001bbc 	.word	0x20001bbc
 8000680:	08000771 	.word	0x08000771
 8000684:	20001bb8 	.word	0x20001bb8
 8000688:	20001bb4 	.word	0x20001bb4
 800068c:	20001b9c 	.word	0x20001b9c
 8000690:	08000791 	.word	0x08000791
 8000694:	20001b94 	.word	0x20001b94
 8000698:	20001b7c 	.word	0x20001b7c
 800069c:	080007b1 	.word	0x080007b1
 80006a0:	20001c18 	.word	0x20001c18
 80006a4:	20001c14 	.word	0x20001c14
 80006a8:	20001bfc 	.word	0x20001bfc
 80006ac:	08000731 	.word	0x08000731

080006b0 <chEvtBroadcastFlagsI.constprop.0>:
 * @param[in] esp       pointer to the @p event_source_t structure
 * @param[in] flags     the flags set to be added to the listener flags mask
 *
 * @iclass
 */
void chEvtBroadcastFlagsI(event_source_t *esp, eventflags_t flags) {
 80006b0:	b4f0      	push	{r4, r5, r6, r7}
  event_listener_t *elp;

  chDbgCheckClassI();
  chDbgCheck(esp != NULL);

  elp = esp->next;
 80006b2:	4c1b      	ldr	r4, [pc, #108]	@ (8000720 <chEvtBroadcastFlagsI.constprop.0+0x70>)
 80006b4:	6823      	ldr	r3, [r4, #0]
  /*lint -save -e9087 -e740 [11.3, 1.3] Cast required by list handling.*/
  while (elp != (event_listener_t *)esp) {
 80006b6:	42a3      	cmp	r3, r4
 80006b8:	d02b      	beq.n	8000712 <chEvtBroadcastFlagsI.constprop.0+0x62>
    tp->u.rdymsg = MSG_OK;
 80006ba:	2500      	movs	r5, #0
 80006bc:	e005      	b.n	80006ca <chEvtBroadcastFlagsI.constprop.0+0x1a>
       ((tp->epending & tp->u.ewmask) != (eventmask_t)0)) ||
 80006be:	f1bc 0f0b 	cmp.w	ip, #11
 80006c2:	d028      	beq.n	8000716 <chEvtBroadcastFlagsI.constprop.0+0x66>
       source does not emit any flag.*/
    if ((flags == (eventflags_t)0) ||
        ((flags & elp->wflags) != (eventflags_t)0)) {
      chEvtSignalI(elp->listener, elp->events);
    }
    elp = elp->next;
 80006c4:	681b      	ldr	r3, [r3, #0]
  while (elp != (event_listener_t *)esp) {
 80006c6:	42a3      	cmp	r3, r4
 80006c8:	d023      	beq.n	8000712 <chEvtBroadcastFlagsI.constprop.0+0x62>
        ((flags & elp->wflags) != (eventflags_t)0)) {
 80006ca:	e9d3 2103 	ldrd	r2, r1, [r3, #12]
    elp->flags |= flags;
 80006ce:	4302      	orrs	r2, r0
    if ((flags == (eventflags_t)0) ||
 80006d0:	4208      	tst	r0, r1
    elp->flags |= flags;
 80006d2:	60da      	str	r2, [r3, #12]
    if ((flags == (eventflags_t)0) ||
 80006d4:	d0f6      	beq.n	80006c4 <chEvtBroadcastFlagsI.constprop.0+0x14>
  tp->epending |= events;
 80006d6:	e9d3 2101 	ldrd	r2, r1, [r3, #4]
 80006da:	6b96      	ldr	r6, [r2, #56]	@ 0x38
  if (((tp->state == CH_STATE_WTOREVT) &&
 80006dc:	f892 c024 	ldrb.w	ip, [r2, #36]	@ 0x24
  tp->epending |= events;
 80006e0:	4331      	orrs	r1, r6
  if (((tp->state == CH_STATE_WTOREVT) &&
 80006e2:	f1bc 0f0a 	cmp.w	ip, #10
  tp->epending |= events;
 80006e6:	6391      	str	r1, [r2, #56]	@ 0x38
  if (((tp->state == CH_STATE_WTOREVT) &&
 80006e8:	d1e9      	bne.n	80006be <chEvtBroadcastFlagsI.constprop.0+0xe>
       ((tp->epending & tp->u.ewmask) != (eventmask_t)0)) ||
 80006ea:	6a96      	ldr	r6, [r2, #40]	@ 0x28
  if (((tp->state == CH_STATE_WTOREVT) &&
 80006ec:	4231      	tst	r1, r6
 80006ee:	d0e9      	beq.n	80006c4 <chEvtBroadcastFlagsI.constprop.0+0x14>
  return threadref(ch_pqueue_insert_behind(&tp->owner->rlist.pqueue,
 80006f0:	6991      	ldr	r1, [r2, #24]
  } while (unlikely(pqp->prio >= p->prio));
 80006f2:	6897      	ldr	r7, [r2, #8]
    tp->u.rdymsg = MSG_OK;
 80006f4:	6295      	str	r5, [r2, #40]	@ 0x28
  tp->state = CH_STATE_READY;
 80006f6:	f882 5024 	strb.w	r5, [r2, #36]	@ 0x24
    pqp = pqp->next;
 80006fa:	6809      	ldr	r1, [r1, #0]
  } while (unlikely(pqp->prio >= p->prio));
 80006fc:	688e      	ldr	r6, [r1, #8]
 80006fe:	42be      	cmp	r6, r7
 8000700:	d2fb      	bcs.n	80006fa <chEvtBroadcastFlagsI.constprop.0+0x4a>
    elp = elp->next;
 8000702:	681b      	ldr	r3, [r3, #0]
  p->prev       = pqp->prev;
 8000704:	684e      	ldr	r6, [r1, #4]
  while (elp != (event_listener_t *)esp) {
 8000706:	42a3      	cmp	r3, r4
 8000708:	e9c2 1600 	strd	r1, r6, [r2]
  p->prev->next = p;
 800070c:	6032      	str	r2, [r6, #0]
  pqp->prev     = p;
 800070e:	604a      	str	r2, [r1, #4]
 8000710:	d1db      	bne.n	80006ca <chEvtBroadcastFlagsI.constprop.0+0x1a>
  }
}
 8000712:	bcf0      	pop	{r4, r5, r6, r7}
 8000714:	4770      	bx	lr
      ((tp->state == CH_STATE_WTANDEVT) &&
 8000716:	6a96      	ldr	r6, [r2, #40]	@ 0x28
 8000718:	ea36 0101 	bics.w	r1, r6, r1
 800071c:	d1d2      	bne.n	80006c4 <chEvtBroadcastFlagsI.constprop.0+0x14>
 800071e:	e7e7      	b.n	80006f0 <chEvtBroadcastFlagsI.constprop.0+0x40>
 8000720:	20001c1c 	.word	0x20001c1c
	...

08000730 <motorTimerCallback>:
static void motorTimerCallback(void) {
 8000730:	b508      	push	{r3, lr}
 8000732:	2330      	movs	r3, #48	@ 0x30
 8000734:	f383 8811 	msr	BASEPRI, r3
    chEvtBroadcastFlagsI(&evt_src, TIMEOUT_MOTOR_EVENT);
 8000738:	2020      	movs	r0, #32
 800073a:	f7ff ffb9 	bl	80006b0 <chEvtBroadcastFlagsI.constprop.0>
 800073e:	2300      	movs	r3, #0
 8000740:	f383 8811 	msr	BASEPRI, r3
}
 8000744:	bd08      	pop	{r3, pc}
 8000746:	bf00      	nop
	...

08000750 <soakTimerCallback>:
static void soakTimerCallback(void) {
 8000750:	b508      	push	{r3, lr}
 8000752:	2330      	movs	r3, #48	@ 0x30
 8000754:	f383 8811 	msr	BASEPRI, r3
    chEvtBroadcastFlagsI(&evt_src, TIMEOUT_SOAK_EVENT);
 8000758:	2040      	movs	r0, #64	@ 0x40
 800075a:	f7ff ffa9 	bl	80006b0 <chEvtBroadcastFlagsI.constprop.0>
 800075e:	2300      	movs	r3, #0
 8000760:	f383 8811 	msr	BASEPRI, r3
}
 8000764:	bd08      	pop	{r3, pc}
 8000766:	bf00      	nop
	...

08000770 <washTimerCallback>:
static void washTimerCallback(void) {
 8000770:	b508      	push	{r3, lr}
 8000772:	2330      	movs	r3, #48	@ 0x30
 8000774:	f383 8811 	msr	BASEPRI, r3
    chEvtBroadcastFlagsI(&evt_src, TIMEOUT_WASH_EVENT);
 8000778:	2080      	movs	r0, #128	@ 0x80
 800077a:	f7ff ff99 	bl	80006b0 <chEvtBroadcastFlagsI.constprop.0>
 800077e:	2300      	movs	r3, #0
 8000780:	f383 8811 	msr	BASEPRI, r3
}
 8000784:	bd08      	pop	{r3, pc}
 8000786:	bf00      	nop
	...

08000790 <rinseTimerCallback>:
static void rinseTimerCallback(void) {
 8000790:	b508      	push	{r3, lr}
 8000792:	2330      	movs	r3, #48	@ 0x30
 8000794:	f383 8811 	msr	BASEPRI, r3
    chEvtBroadcastFlagsI(&evt_src, TIMEOUT_RINSE_EVENT);
 8000798:	f44f 7080 	mov.w	r0, #256	@ 0x100
 800079c:	f7ff ff88 	bl	80006b0 <chEvtBroadcastFlagsI.constprop.0>
 80007a0:	2300      	movs	r3, #0
 80007a2:	f383 8811 	msr	BASEPRI, r3
}
 80007a6:	bd08      	pop	{r3, pc}
	...

080007b0 <centrifugeTimerCallback>:
static void centrifugeTimerCallback(void) {
 80007b0:	b508      	push	{r3, lr}
 80007b2:	2330      	movs	r3, #48	@ 0x30
 80007b4:	f383 8811 	msr	BASEPRI, r3
    chEvtBroadcastFlagsI(&evt_src, TIMEOUT_CENTRIFUGE_EVENT);
 80007b8:	f44f 7000 	mov.w	r0, #512	@ 0x200
 80007bc:	f7ff ff78 	bl	80006b0 <chEvtBroadcastFlagsI.constprop.0>
 80007c0:	2300      	movs	r3, #0
 80007c2:	f383 8811 	msr	BASEPRI, r3
}
 80007c6:	bd08      	pop	{r3, pc}
	...

080007d0 <startButtonCallback>:
static void startButtonCallback(void) {
 80007d0:	b508      	push	{r3, lr}
 80007d2:	2330      	movs	r3, #48	@ 0x30
 80007d4:	f383 8811 	msr	BASEPRI, r3
    chEvtBroadcastFlagsI(&evt_src, START_EVENT);
 80007d8:	2001      	movs	r0, #1
 80007da:	f7ff ff69 	bl	80006b0 <chEvtBroadcastFlagsI.constprop.0>
 80007de:	2300      	movs	r3, #0
 80007e0:	f383 8811 	msr	BASEPRI, r3
}
 80007e4:	bd08      	pop	{r3, pc}
 80007e6:	bf00      	nop
	...

080007f0 <highWatermarkButtonCallback>:
static void highWatermarkButtonCallback(void) {
 80007f0:	b508      	push	{r3, lr}
 80007f2:	2330      	movs	r3, #48	@ 0x30
 80007f4:	f383 8811 	msr	BASEPRI, r3
    chEvtBroadcastFlagsI(&evt_src, HIGH_WATERMARK_EVENT);
 80007f8:	2002      	movs	r0, #2
 80007fa:	f7ff ff59 	bl	80006b0 <chEvtBroadcastFlagsI.constprop.0>
 80007fe:	2300      	movs	r3, #0
 8000800:	f383 8811 	msr	BASEPRI, r3
}
 8000804:	bd08      	pop	{r3, pc}
 8000806:	bf00      	nop
	...

08000810 <lowWatermarkButtonCallback>:
static void lowWatermarkButtonCallback(void) {
 8000810:	b508      	push	{r3, lr}
 8000812:	2330      	movs	r3, #48	@ 0x30
 8000814:	f383 8811 	msr	BASEPRI, r3
    chEvtBroadcastFlagsI(&evt_src, LOW_WATERMARK_EVENT);
 8000818:	2004      	movs	r0, #4
 800081a:	f7ff ff49 	bl	80006b0 <chEvtBroadcastFlagsI.constprop.0>
 800081e:	2300      	movs	r3, #0
 8000820:	f383 8811 	msr	BASEPRI, r3
}
 8000824:	bd08      	pop	{r3, pc}
 8000826:	bf00      	nop
	...

08000830 <openLidButtonCallback>:
 8000830:	2330      	movs	r3, #48	@ 0x30
static void openLidButtonCallback(void) {
 8000832:	b510      	push	{r4, lr}
 8000834:	f383 8811 	msr	BASEPRI, r3
    if(is_lid_open) {
 8000838:	4c0a      	ldr	r4, [pc, #40]	@ (8000864 <openLidButtonCallback+0x34>)
 800083a:	7823      	ldrb	r3, [r4, #0]
 800083c:	b143      	cbz	r3, 8000850 <openLidButtonCallback+0x20>
        chEvtBroadcastFlagsI(&evt_src, LID_CLOSE_EVENT);
 800083e:	2010      	movs	r0, #16
 8000840:	f7ff ff36 	bl	80006b0 <chEvtBroadcastFlagsI.constprop.0>
        is_lid_open = 0;
 8000844:	2300      	movs	r3, #0
 8000846:	7023      	strb	r3, [r4, #0]
 8000848:	2300      	movs	r3, #0
 800084a:	f383 8811 	msr	BASEPRI, r3
}
 800084e:	bd10      	pop	{r4, pc}
        chEvtBroadcastFlagsI(&evt_src, LID_OPEN_EVENT);
 8000850:	2008      	movs	r0, #8
 8000852:	f7ff ff2d 	bl	80006b0 <chEvtBroadcastFlagsI.constprop.0>
        is_lid_open = 1;
 8000856:	2301      	movs	r3, #1
 8000858:	7023      	strb	r3, [r4, #0]
 800085a:	2300      	movs	r3, #0
 800085c:	f383 8811 	msr	BASEPRI, r3
}
 8000860:	bd10      	pop	{r4, pc}
 8000862:	bf00      	nop
 8000864:	20001c19 	.word	0x20001c19
	...

08000870 <stateMachine>:
    }
}
static THD_WORKING_AREA(wa_eventHandle, 2048);

/* Recebe como parametro os estados da FSM e os processa */
static THD_FUNCTION(stateMachine, arg) {
 8000870:	b580      	push	{r7, lr}
 8000872:	2330      	movs	r3, #48	@ 0x30
 8000874:	b086      	sub	sp, #24
 8000876:	f383 8811 	msr	BASEPRI, r3
  elp->events   = events;
 800087a:	f44f 6080 	mov.w	r0, #1024	@ 0x400
 800087e:	2100      	movs	r1, #0
  elp->wflags   = wflags;
 8000880:	f04f 32ff 	mov.w	r2, #4294967295
  elp->next     = esp->next;
 8000884:	4b3c      	ldr	r3, [pc, #240]	@ (8000978 <stateMachine+0x108>)
 *
 * @xclass
 */
static inline thread_t *chThdGetSelfX(void) {

  return __sch_get_currthread();
 8000886:	4d3d      	ldr	r5, [pc, #244]	@ (800097c <stateMachine+0x10c>)
  elp->events   = events;
 8000888:	e9cd 0102 	strd	r0, r1, [sp, #8]
  elp->next     = esp->next;
 800088c:	6819      	ldr	r1, [r3, #0]
  esp->next     = elp;
 800088e:	f8c3 d000 	str.w	sp, [r3]
 8000892:	68eb      	ldr	r3, [r5, #12]
  elp->wflags   = wflags;
 8000894:	9204      	str	r2, [sp, #16]
  elp->next     = esp->next;
 8000896:	9100      	str	r1, [sp, #0]
 8000898:	2200      	movs	r2, #0
  elp->listener = currtp;
 800089a:	9301      	str	r3, [sp, #4]
 800089c:	f382 8811 	msr	BASEPRI, r2
 80008a0:	f8df 80dc 	ldr.w	r8, [pc, #220]	@ 8000980 <stateMachine+0x110>
                palWriteGroup(IOPORT1, GPIO_OUTPUT_MASK, 0, 0x0091);
                break;

            case OPEN_LID:
                /* desliga todas as sadas, menos o led de funcionamento */
                palWriteGroup(IOPORT1, GPIO_OUTPUT_MASK, 0, 0x0001);
 80008a4:	f8df 90dc 	ldr.w	r9, [pc, #220]	@ 8000984 <stateMachine+0x114>
 80008a8:	4e37      	ldr	r6, [pc, #220]	@ (8000988 <stateMachine+0x118>)
                palWriteGroup(IOPORT1, GPIO_OUTPUT_MASK, 0, 0x0091);
 80008aa:	4f38      	ldr	r7, [pc, #224]	@ (800098c <stateMachine+0x11c>)
 80008ac:	2330      	movs	r3, #48	@ 0x30
 80008ae:	68ec      	ldr	r4, [r5, #12]
 80008b0:	f383 8811 	msr	BASEPRI, r3
eventmask_t chEvtWaitAny(eventmask_t events) {
  thread_t *currtp = chThdGetSelfX();
  eventmask_t m;

  chSysLock();
  m = currtp->epending & events;
 80008b4:	6ba3      	ldr	r3, [r4, #56]	@ 0x38
  if (m == (eventmask_t)0) {
 80008b6:	055a      	lsls	r2, r3, #21
 80008b8:	d541      	bpl.n	800093e <stateMachine+0xce>
 80008ba:	f46f 6280 	mvn.w	r2, #1024	@ 0x400
    currtp->u.ewmask = events;
    chSchGoSleepS(CH_STATE_WTOREVT);
    m = currtp->epending & events;
  }
  currtp->epending &= ~m;
 80008be:	4013      	ands	r3, r2
 80008c0:	63a3      	str	r3, [r4, #56]	@ 0x38
 80008c2:	2200      	movs	r2, #0
 80008c4:	f382 8811 	msr	BASEPRI, r2
        switch(current_state) {
 80008c8:	f898 3000 	ldrb.w	r3, [r8]
 80008cc:	2b0c      	cmp	r3, #12
 80008ce:	d84d      	bhi.n	800096c <stateMachine+0xfc>
 80008d0:	e8df f003 	tbb	[pc, r3]
 80008d4:	292d3107 	.word	0x292d3107
 80008d8:	191d2125 	.word	0x191d2125
 80008dc:	0a0d1115 	.word	0x0a0d1115
 80008e0:	07          	.byte	0x07
 80008e1:	00          	.byte	0x00
                palWriteGroup(IOPORT1, GPIO_OUTPUT_MASK, 0, 0x0001);
 80008e2:	f8c9 6010 	str.w	r6, [r9, #16]
                break;
 80008e6:	e7e1      	b.n	80008ac <stateMachine+0x3c>
                palWriteGroup(IOPORT1, GPIO_OUTPUT_MASK, 0, 0x0091);
 80008e8:	f8c9 7010 	str.w	r7, [r9, #16]
                break;
 80008ec:	e7de      	b.n	80008ac <stateMachine+0x3c>
                palWriteGroup(IOPORT1, GPIO_OUTPUT_MASK, 0, 0x0049);
 80008ee:	4b28      	ldr	r3, [pc, #160]	@ (8000990 <stateMachine+0x120>)
 80008f0:	f8c9 3010 	str.w	r3, [r9, #16]
                break;
 80008f4:	e7da      	b.n	80008ac <stateMachine+0x3c>
                palWriteGroup(IOPORT1, GPIO_OUTPUT_MASK, 0, 0x0109);
 80008f6:	4b27      	ldr	r3, [pc, #156]	@ (8000994 <stateMachine+0x124>)
 80008f8:	f8c9 3010 	str.w	r3, [r9, #16]
                break;
 80008fc:	e7d6      	b.n	80008ac <stateMachine+0x3c>
                palWriteGroup(IOPORT1, GPIO_OUTPUT_MASK, 0, 0x0089);
 80008fe:	4b26      	ldr	r3, [pc, #152]	@ (8000998 <stateMachine+0x128>)
 8000900:	f8c9 3010 	str.w	r3, [r9, #16]
                break;
 8000904:	e7d2      	b.n	80008ac <stateMachine+0x3c>
                palWriteGroup(IOPORT1, GPIO_OUTPUT_MASK, 0, 0x0029);
 8000906:	4b25      	ldr	r3, [pc, #148]	@ (800099c <stateMachine+0x12c>)
 8000908:	f8c9 3010 	str.w	r3, [r9, #16]
                break;
 800090c:	e7ce      	b.n	80008ac <stateMachine+0x3c>
                palWriteGroup(IOPORT1, GPIO_OUTPUT_MASK, 0, 0x0045);
 800090e:	4b24      	ldr	r3, [pc, #144]	@ (80009a0 <stateMachine+0x130>)
 8000910:	f8c9 3010 	str.w	r3, [r9, #16]
                break;
 8000914:	e7ca      	b.n	80008ac <stateMachine+0x3c>
                palWriteGroup(IOPORT1, GPIO_OUTPUT_MASK, 0, 0x0105);
 8000916:	4b23      	ldr	r3, [pc, #140]	@ (80009a4 <stateMachine+0x134>)
 8000918:	f8c9 3010 	str.w	r3, [r9, #16]
                break;
 800091c:	e7c6      	b.n	80008ac <stateMachine+0x3c>
                palWriteGroup(IOPORT1, GPIO_OUTPUT_MASK, 0, 0x0085);
 800091e:	4b22      	ldr	r3, [pc, #136]	@ (80009a8 <stateMachine+0x138>)
 8000920:	f8c9 3010 	str.w	r3, [r9, #16]
                break;
 8000924:	e7c2      	b.n	80008ac <stateMachine+0x3c>
                palWriteGroup(IOPORT1, GPIO_OUTPUT_MASK, 0, 0x0103);
 8000926:	4b21      	ldr	r3, [pc, #132]	@ (80009ac <stateMachine+0x13c>)
 8000928:	f8c9 3010 	str.w	r3, [r9, #16]
                break;
 800092c:	e7be      	b.n	80008ac <stateMachine+0x3c>
                palWriteGroup(IOPORT1, GPIO_OUTPUT_MASK, 0, 0x0083);
 800092e:	4b20      	ldr	r3, [pc, #128]	@ (80009b0 <stateMachine+0x140>)
 8000930:	f8c9 3010 	str.w	r3, [r9, #16]
                break;
 8000934:	e7ba      	b.n	80008ac <stateMachine+0x3c>
                palWriteGroup(IOPORT1, GPIO_OUTPUT_MASK, 0, 0x0023);
 8000936:	4b1f      	ldr	r3, [pc, #124]	@ (80009b4 <stateMachine+0x144>)
 8000938:	f8c9 3010 	str.w	r3, [r9, #16]
                break;
 800093c:	e7b6      	b.n	80008ac <stateMachine+0x3c>
    currtp->u.ewmask = events;
 800093e:	f44f 6c80 	mov.w	ip, #1024	@ 0x400
  otp->state = newstate;
 8000942:	230a      	movs	r3, #10
  ntp->state = CH_STATE_CURRENT;
 8000944:	2201      	movs	r2, #1
  thread_t *otp = __instance_get_currthread(oip);
 8000946:	68e9      	ldr	r1, [r5, #12]
  ch_priority_queue_t *p = pqp->next;
 8000948:	6828      	ldr	r0, [r5, #0]
 800094a:	f8c4 c028 	str.w	ip, [r4, #40]	@ 0x28
  otp->state = newstate;
 800094e:	f881 3024 	strb.w	r3, [r1, #36]	@ 0x24
  pqp->next       = p->next;
 8000952:	6803      	ldr	r3, [r0, #0]
  pqp->next->prev = pqp;
 8000954:	605d      	str	r5, [r3, #4]
  ntp->state = CH_STATE_CURRENT;
 8000956:	f880 2024 	strb.w	r2, [r0, #36]	@ 0x24
  pqp->next       = p->next;
 800095a:	602b      	str	r3, [r5, #0]
  __instance_set_currthread(oip, ntp);
 800095c:	60e8      	str	r0, [r5, #12]
  chSysSwitch(ntp, otp);
 800095e:	f7ff fc6f 	bl	8000240 <__port_switch>
    m = currtp->epending & events;
 8000962:	6ba3      	ldr	r3, [r4, #56]	@ 0x38
 8000964:	f403 6280 	and.w	r2, r3, #1024	@ 0x400
  currtp->epending &= ~m;
 8000968:	43d2      	mvns	r2, r2
 800096a:	e7a8      	b.n	80008be <stateMachine+0x4e>

            default:
                /* ERRO: acende todos os leds */
                palWriteGroup(IOPORT1, GPIO_OUTPUT_MASK, 0, 0x01FF);
 800096c:	f240 12ff 	movw	r2, #511	@ 0x1ff
 8000970:	4b04      	ldr	r3, [pc, #16]	@ (8000984 <stateMachine+0x114>)
 8000972:	611a      	str	r2, [r3, #16]
                break;
 8000974:	e79a      	b.n	80008ac <stateMachine+0x3c>
 8000976:	bf00      	nop
 8000978:	20001c1c 	.word	0x20001c1c
 800097c:	20001c38 	.word	0x20001c38
 8000980:	20001b79 	.word	0x20001b79
 8000984:	40010800 	.word	0x40010800
 8000988:	01fe0001 	.word	0x01fe0001
 800098c:	016e0091 	.word	0x016e0091
 8000990:	01b60049 	.word	0x01b60049
 8000994:	00f60109 	.word	0x00f60109
 8000998:	01760089 	.word	0x01760089
 800099c:	01d60029 	.word	0x01d60029
 80009a0:	01ba0045 	.word	0x01ba0045
 80009a4:	00fa0105 	.word	0x00fa0105
 80009a8:	017a0085 	.word	0x017a0085
 80009ac:	00fc0103 	.word	0x00fc0103
 80009b0:	017c0083 	.word	0x017c0083
 80009b4:	01dc0023 	.word	0x01dc0023
	...

080009c0 <chThdCreateStatic.constprop.0.isra.0>:
 * @return              The pointer to the @p thread_t structure allocated for
 *                      the thread into the working space area.
 *
 * @api
 */
thread_t *chThdCreateStatic(void *wsp, size_t size,
 80009c0:	b5f8      	push	{r3, r4, r5, r6, r7, lr}
 80009c2:	2230      	movs	r2, #48	@ 0x30
 80009c4:	4603      	mov	r3, r0
 80009c6:	f382 8811 	msr	BASEPRI, r2
  /* Stack boundary.*/
  tp->wabase = (stkalign_t *)wsp;
#endif

  /* Setting up the port-dependent part of the working area.*/
  PORT_SETUP_CONTEXT(tp, wsp, tp, pf, arg);
 80009ca:	f8c3 1884 	str.w	r1, [r3, #2180]	@ 0x884
  tp->flags             = CH_FLAG_MODE_STATIC;
 80009ce:	f44f 7180 	mov.w	r1, #256	@ 0x100
  tp->hdr.pqueue.prio   = prio;
 80009d2:	2581      	movs	r5, #129	@ 0x81
  PORT_SETUP_CONTEXT(tp, wsp, tp, pf, arg);
 80009d4:	2400      	movs	r4, #0
  tp->owner             = oip;
 80009d6:	4a2f      	ldr	r2, [pc, #188]	@ (8000a94 <chThdCreateStatic.constprop.0.isra.0+0xd4>)
  PORT_SETUP_CONTEXT(tp, wsp, tp, pf, arg);
 80009d8:	482f      	ldr	r0, [pc, #188]	@ (8000a98 <chThdCreateStatic.constprop.0.isra.0+0xd8>)
  p->prev       = qp->prev;
 80009da:	6ad7      	ldr	r7, [r2, #44]	@ 0x2c
  tp->flags             = CH_FLAG_MODE_STATIC;
 80009dc:	f8a3 18cd 	strh.w	r1, [r3, #2253]	@ 0x8cd
  tp->name              = name;
 80009e0:	492e      	ldr	r1, [pc, #184]	@ (8000a9c <chThdCreateStatic.constprop.0.isra.0+0xdc>)
  tp->hdr.pqueue.prio   = prio;
 80009e2:	f8c3 58b0 	str.w	r5, [r3, #2224]	@ 0x8b0
  REG_INSERT(oip, tp);
 80009e6:	f603 06b8 	addw	r6, r3, #2232	@ 0x8b8
  PORT_SETUP_CONTEXT(tp, wsp, tp, pf, arg);
 80009ea:	f8c3 08a4 	str.w	r0, [r3, #2212]	@ 0x8a4
  tp->realprio          = prio;
 80009ee:	f8c3 58e8 	str.w	r5, [r3, #2280]	@ 0x8e8
  PORT_SETUP_CONTEXT(tp, wsp, tp, pf, arg);
 80009f2:	f603 0084 	addw	r0, r3, #2180	@ 0x884
  ch_queue_init(&tp->msgqueue);
 80009f6:	f603 05d8 	addw	r5, r3, #2264	@ 0x8d8
  p->next       = qp;
 80009fa:	f102 0c28 	add.w	ip, r2, #40	@ 0x28
  PORT_SETUP_CONTEXT(tp, wsp, tp, pf, arg);
 80009fe:	f8c3 08b4 	str.w	r0, [r3, #2228]	@ 0x8b4
  p->prev       = qp->prev;
 8000a02:	f8c3 78bc 	str.w	r7, [r3, #2236]	@ 0x8bc
  tp->name              = name;
 8000a06:	f8c3 18c4 	str.w	r1, [r3, #2244]	@ 0x8c4
  p->next       = qp;
 8000a0a:	f8c3 c8b8 	str.w	ip, [r3, #2232]	@ 0x8b8
  thread_t *otp = __instance_get_currthread(oip);
 8000a0e:	68d1      	ldr	r1, [r2, #12]
  tp->wabase = (stkalign_t *)wsp;
 8000a10:	f8c3 38c8 	str.w	r3, [r3, #2248]	@ 0x8c8
  tp->owner             = oip;
 8000a14:	f8c3 28c0 	str.w	r2, [r3, #2240]	@ 0x8c0
  PORT_SETUP_CONTEXT(tp, wsp, tp, pf, arg);
 8000a18:	f8c3 4888 	str.w	r4, [r3, #2184]	@ 0x888
  tp->mtxlist           = NULL;
 8000a1c:	f8c3 48e4 	str.w	r4, [r3, #2276]	@ 0x8e4
  tp->epending          = (eventmask_t)0;
 8000a20:	f8c3 48e0 	str.w	r4, [r3, #2272]	@ 0x8e0
  p->prev->next = p;
 8000a24:	603e      	str	r6, [r7, #0]
  qp->next = qp;
 8000a26:	f8c3 58d8 	str.w	r5, [r3, #2264]	@ 0x8d8
  qp->prev = qp;
 8000a2a:	f8c3 58dc 	str.w	r5, [r3, #2268]	@ 0x8dc
  ch_list_init(&tp->waiting);
 8000a2e:	f603 05d4 	addw	r5, r3, #2260	@ 0x8d4
  qp->prev      = p;
 8000a32:	62d6      	str	r6, [r2, #44]	@ 0x2c
  lp->next = lp;
 8000a34:	f8c3 58d4 	str.w	r5, [r3, #2260]	@ 0x8d4
  if (unlikely(ntp->hdr.pqueue.prio <= otp->hdr.pqueue.prio)) {
 8000a38:	f8d3 68b0 	ldr.w	r6, [r3, #2224]	@ 0x8b0
 8000a3c:	688d      	ldr	r5, [r1, #8]
  tp = threadref(((uint8_t *)wsp + size -
 8000a3e:	f603 00a8 	addw	r0, r3, #2216	@ 0x8a8
 8000a42:	42ae      	cmp	r6, r5
  ntp->u.rdymsg = msg;
 8000a44:	f8c3 48d0 	str.w	r4, [r3, #2256]	@ 0x8d0
  if (unlikely(ntp->hdr.pqueue.prio <= otp->hdr.pqueue.prio)) {
 8000a48:	d915      	bls.n	8000a76 <chThdCreateStatic.constprop.0.isra.0+0xb6>
  tp->state = CH_STATE_READY;
 8000a4a:	f881 4024 	strb.w	r4, [r1, #36]	@ 0x24
  return threadref(ch_pqueue_insert_ahead(&tp->owner->rlist.pqueue,
 8000a4e:	698c      	ldr	r4, [r1, #24]
    pqp = pqp->next;
 8000a50:	6824      	ldr	r4, [r4, #0]
  } while (unlikely(pqp->prio > p->prio));
 8000a52:	68a6      	ldr	r6, [r4, #8]
 8000a54:	42b5      	cmp	r5, r6
 8000a56:	d3fb      	bcc.n	8000a50 <chThdCreateStatic.constprop.0.isra.0+0x90>
    ntp->state = CH_STATE_CURRENT;
 8000a58:	2601      	movs	r6, #1
  p->prev       = pqp->prev;
 8000a5a:	6865      	ldr	r5, [r4, #4]
  p->next       = pqp;
 8000a5c:	600c      	str	r4, [r1, #0]
  p->prev       = pqp->prev;
 8000a5e:	604d      	str	r5, [r1, #4]
  p->prev->next = p;
 8000a60:	6029      	str	r1, [r5, #0]
  pqp->prev     = p;
 8000a62:	6061      	str	r1, [r4, #4]
 8000a64:	f883 68cc 	strb.w	r6, [r3, #2252]	@ 0x8cc
    __instance_set_currthread(oip, ntp);
 8000a68:	60d0      	str	r0, [r2, #12]
    chSysSwitch(ntp, otp);
 8000a6a:	f7ff fbe9 	bl	8000240 <__port_switch>
 8000a6e:	2300      	movs	r3, #0
 8000a70:	f383 8811 	msr	BASEPRI, r3
  /* Starting the thread immediately.*/
  chSchWakeupS(tp, MSG_OK);
  chSysUnlock();

  return tp;
}
 8000a74:	bdf8      	pop	{r3, r4, r5, r6, r7, pc}
  tp->state = CH_STATE_READY;
 8000a76:	f883 48cc 	strb.w	r4, [r3, #2252]	@ 0x8cc
    pqp = pqp->next;
 8000a7a:	6812      	ldr	r2, [r2, #0]
  } while (unlikely(pqp->prio >= p->prio));
 8000a7c:	6891      	ldr	r1, [r2, #8]
 8000a7e:	428e      	cmp	r6, r1
 8000a80:	d9fb      	bls.n	8000a7a <chThdCreateStatic.constprop.0.isra.0+0xba>
  p->prev       = pqp->prev;
 8000a82:	6851      	ldr	r1, [r2, #4]
  p->next       = pqp;
 8000a84:	f8c3 28a8 	str.w	r2, [r3, #2216]	@ 0x8a8
  p->prev       = pqp->prev;
 8000a88:	f8c3 18ac 	str.w	r1, [r3, #2220]	@ 0x8ac
  p->prev->next = p;
 8000a8c:	6008      	str	r0, [r1, #0]
  pqp->prev     = p;
 8000a8e:	6050      	str	r0, [r2, #4]
  return threadref(ch_pqueue_insert_behind(&tp->owner->rlist.pqueue,
 8000a90:	e7ed      	b.n	8000a6e <chThdCreateStatic.constprop.0.isra.0+0xae>
 8000a92:	bf00      	nop
 8000a94:	20001c38 	.word	0x20001c38
 8000a98:	08000251 	.word	0x08000251
 8000a9c:	080022f4 	.word	0x080022f4

08000aa0 <__cpu_init>:

#if CORTEX_MODEL == 7
  SCB_EnableICache();
  SCB_EnableDCache();
#endif
}
 8000aa0:	4770      	bx	lr
 8000aa2:	bf00      	nop
	...

08000ab0 <__late_init>:
 */
#if !defined(__DOXYGEN__)
__attribute__((weak))
#endif
/*lint -save -e9075 [8.4] All symbols are invoked from asm context.*/
void __late_init(void) {}
 8000ab0:	4770      	bx	lr
 8000ab2:	bf00      	nop
	...

08000ac0 <__default_exit>:
#endif
/*lint -save -e9075 [8.4] All symbols are invoked from asm context.*/
void __default_exit(void) {
/*lint -restore*/

  while (true) {
 8000ac0:	e7fe      	b.n	8000ac0 <__default_exit>
 8000ac2:	bf00      	nop
	...

08000ad0 <__init_ram_areas>:
#endif

/**
 * @brief   Performs the initialization of the various RAM areas.
 */
void __init_ram_areas(void) {
 8000ad0:	b570      	push	{r4, r5, r6, lr}
 8000ad2:	4d13      	ldr	r5, [pc, #76]	@ (8000b20 <__init_ram_areas+0x50>)
 8000ad4:	f105 0480 	add.w	r4, r5, #128	@ 0x80
  do {
    uint32_t *tp = rap->init_text_area;
    uint32_t *p = rap->init_area;

    /* Copying initialization data.*/
    while (p < rap->clear_area) {
 8000ad8:	e955 0103 	ldrd	r0, r1, [r5, #-12]
 8000adc:	4288      	cmp	r0, r1
    uint32_t *tp = rap->init_text_area;
 8000ade:	f855 2c10 	ldr.w	r2, [r5, #-16]
    while (p < rap->clear_area) {
 8000ae2:	d20d      	bcs.n	8000b00 <__init_ram_areas+0x30>
    uint32_t *p = rap->init_area;
 8000ae4:	4603      	mov	r3, r0
 8000ae6:	3a04      	subs	r2, #4
      *p = *tp;
 8000ae8:	f852 6f04 	ldr.w	r6, [r2, #4]!
 8000aec:	f843 6b04 	str.w	r6, [r3], #4
    while (p < rap->clear_area) {
 8000af0:	428b      	cmp	r3, r1
 8000af2:	d3f9      	bcc.n	8000ae8 <__init_ram_areas+0x18>
 8000af4:	1e4b      	subs	r3, r1, #1
 8000af6:	1a1b      	subs	r3, r3, r0
 8000af8:	f023 0303 	bic.w	r3, r3, #3
 8000afc:	3304      	adds	r3, #4
 8000afe:	4418      	add	r0, r3
      p++;
      tp++;
    }

    /* Zeroing clear area.*/
    while (p < rap->no_init_area) {
 8000b00:	f855 2c04 	ldr.w	r2, [r5, #-4]
 8000b04:	4282      	cmp	r2, r0
 8000b06:	d907      	bls.n	8000b18 <__init_ram_areas+0x48>
      *p = 0;
 8000b08:	3a01      	subs	r2, #1
 8000b0a:	1a12      	subs	r2, r2, r0
 8000b0c:	f022 0203 	bic.w	r2, r2, #3
 8000b10:	2100      	movs	r1, #0
 8000b12:	3204      	adds	r2, #4
 8000b14:	f001 fb9e 	bl	8002254 <memset>
      p++;
    }
    rap++;
  }
  while (rap < &ram_areas[CRT0_AREAS_NUMBER]);
 8000b18:	3510      	adds	r5, #16
 8000b1a:	42a5      	cmp	r5, r4
 8000b1c:	d1dc      	bne.n	8000ad8 <__init_ram_areas+0x8>
#endif
}
 8000b1e:	bd70      	pop	{r4, r5, r6, pc}
 8000b20:	0800236c 	.word	0x0800236c
	...

08000b30 <Vector58>:
OSAL_IRQ_HANDLER(Vector58) {
  uint32_t pr;

  OSAL_IRQ_PROLOGUE();

  pr = EXTI->PR;
 8000b30:	4a18      	ldr	r2, [pc, #96]	@ (8000b94 <Vector58+0x64>)
 8000b32:	6951      	ldr	r1, [r2, #20]
  pr &= EXTI->IMR & (1U << 0);
 8000b34:	6813      	ldr	r3, [r2, #0]
 8000b36:	400b      	ands	r3, r1
 8000b38:	f003 0301 	and.w	r3, r3, #1
  EXTI->PR = pr;
 8000b3c:	6153      	str	r3, [r2, #20]

  exti_serve_irq(pr, 0);
 8000b3e:	b33b      	cbz	r3, 8000b90 <Vector58+0x60>
OSAL_IRQ_HANDLER(Vector58) {
 8000b40:	b570      	push	{r4, r5, r6, lr}
  exti_serve_irq(pr, 0);
 8000b42:	4c15      	ldr	r4, [pc, #84]	@ (8000b98 <Vector58+0x68>)
 8000b44:	68a3      	ldr	r3, [r4, #8]
 8000b46:	b10b      	cbz	r3, 8000b4c <Vector58+0x1c>
 8000b48:	68e0      	ldr	r0, [r4, #12]
 8000b4a:	4798      	blx	r3
 8000b4c:	2330      	movs	r3, #48	@ 0x30
 8000b4e:	f383 8811 	msr	BASEPRI, r3
  return (bool)(qp->next != qp);
 8000b52:	6821      	ldr	r1, [r4, #0]
 *
 * @iclass
 */
void chThdDequeueAllI(threads_queue_t *tqp, msg_t msg) {

  while (ch_queue_notempty(&tqp->queue)) {
 8000b54:	42a1      	cmp	r1, r4
 8000b56:	d014      	beq.n	8000b82 <Vector58+0x52>

  tp = threadref(ch_queue_fifo_remove(&tqp->queue));

  chDbgAssert(tp->state == CH_STATE_QUEUED, "invalid state");

  tp->u.rdymsg = msg;
 8000b58:	2600      	movs	r6, #0
 8000b5a:	460b      	mov	r3, r1
  qp->next       = p->next;
 8000b5c:	6809      	ldr	r1, [r1, #0]
 8000b5e:	699a      	ldr	r2, [r3, #24]
  } while (unlikely(pqp->prio >= p->prio));
 8000b60:	689d      	ldr	r5, [r3, #8]
  qp->next->prev = qp;
 8000b62:	604c      	str	r4, [r1, #4]
  qp->next       = p->next;
 8000b64:	6021      	str	r1, [r4, #0]
 8000b66:	629e      	str	r6, [r3, #40]	@ 0x28
  tp->state = CH_STATE_READY;
 8000b68:	f883 6024 	strb.w	r6, [r3, #36]	@ 0x24
    pqp = pqp->next;
 8000b6c:	6812      	ldr	r2, [r2, #0]
  } while (unlikely(pqp->prio >= p->prio));
 8000b6e:	6890      	ldr	r0, [r2, #8]
 8000b70:	42a8      	cmp	r0, r5
 8000b72:	d2fb      	bcs.n	8000b6c <Vector58+0x3c>
  p->prev       = pqp->prev;
 8000b74:	6850      	ldr	r0, [r2, #4]
 8000b76:	42a1      	cmp	r1, r4
 8000b78:	e9c3 2000 	strd	r2, r0, [r3]
  p->prev->next = p;
 8000b7c:	6003      	str	r3, [r0, #0]
  pqp->prev     = p;
 8000b7e:	6053      	str	r3, [r2, #4]
 8000b80:	d1eb      	bne.n	8000b5a <Vector58+0x2a>
 8000b82:	2300      	movs	r3, #0
 8000b84:	f383 8811 	msr	BASEPRI, r3

  OSAL_IRQ_EPILOGUE();
}
 8000b88:	e8bd 4070 	ldmia.w	sp!, {r4, r5, r6, lr}
  OSAL_IRQ_EPILOGUE();
 8000b8c:	f7ff bc10 	b.w	80003b0 <__port_irq_epilogue>
 8000b90:	f7ff bc0e 	b.w	80003b0 <__port_irq_epilogue>
 8000b94:	40010400 	.word	0x40010400
 8000b98:	20001cc0 	.word	0x20001cc0
 8000b9c:	00000000 	.word	0x00000000

08000ba0 <Vector5C>:
OSAL_IRQ_HANDLER(Vector5C) {
  uint32_t pr;

  OSAL_IRQ_PROLOGUE();

  pr = EXTI->PR;
 8000ba0:	4a18      	ldr	r2, [pc, #96]	@ (8000c04 <Vector5C+0x64>)
OSAL_IRQ_HANDLER(Vector5C) {
 8000ba2:	b5f8      	push	{r3, r4, r5, r6, r7, lr}
  pr = EXTI->PR;
 8000ba4:	6951      	ldr	r1, [r2, #20]
  pr &= EXTI->IMR & (1U << 1);
 8000ba6:	6813      	ldr	r3, [r2, #0]
 8000ba8:	400b      	ands	r3, r1
 8000baa:	f003 0302 	and.w	r3, r3, #2
  EXTI->PR = pr;
 8000bae:	6153      	str	r3, [r2, #20]

  exti_serve_irq(pr, 1);
 8000bb0:	b31b      	cbz	r3, 8000bfa <Vector5C+0x5a>
 8000bb2:	4f15      	ldr	r7, [pc, #84]	@ (8000c08 <Vector5C+0x68>)
 8000bb4:	69bb      	ldr	r3, [r7, #24]
 8000bb6:	b10b      	cbz	r3, 8000bbc <Vector5C+0x1c>
 8000bb8:	69f8      	ldr	r0, [r7, #28]
 8000bba:	4798      	blx	r3
 8000bbc:	2330      	movs	r3, #48	@ 0x30
 8000bbe:	f383 8811 	msr	BASEPRI, r3
 8000bc2:	4c12      	ldr	r4, [pc, #72]	@ (8000c0c <Vector5C+0x6c>)
  return (bool)(qp->next != qp);
 8000bc4:	6939      	ldr	r1, [r7, #16]
 8000bc6:	42a1      	cmp	r1, r4
 8000bc8:	d014      	beq.n	8000bf4 <Vector5C+0x54>
 8000bca:	2600      	movs	r6, #0
 8000bcc:	460b      	mov	r3, r1
  qp->next       = p->next;
 8000bce:	6809      	ldr	r1, [r1, #0]
  return threadref(ch_pqueue_insert_behind(&tp->owner->rlist.pqueue,
 8000bd0:	699a      	ldr	r2, [r3, #24]
  } while (unlikely(pqp->prio >= p->prio));
 8000bd2:	689d      	ldr	r5, [r3, #8]
  qp->next       = p->next;
 8000bd4:	6139      	str	r1, [r7, #16]
  qp->next->prev = qp;
 8000bd6:	604c      	str	r4, [r1, #4]
 8000bd8:	629e      	str	r6, [r3, #40]	@ 0x28
  tp->state = CH_STATE_READY;
 8000bda:	f883 6024 	strb.w	r6, [r3, #36]	@ 0x24
    pqp = pqp->next;
 8000bde:	6812      	ldr	r2, [r2, #0]
  } while (unlikely(pqp->prio >= p->prio));
 8000be0:	6890      	ldr	r0, [r2, #8]
 8000be2:	42a8      	cmp	r0, r5
 8000be4:	d2fb      	bcs.n	8000bde <Vector5C+0x3e>
  p->prev       = pqp->prev;
 8000be6:	6850      	ldr	r0, [r2, #4]
 8000be8:	42a1      	cmp	r1, r4
 8000bea:	e9c3 2000 	strd	r2, r0, [r3]
  p->prev->next = p;
 8000bee:	6003      	str	r3, [r0, #0]
  pqp->prev     = p;
 8000bf0:	6053      	str	r3, [r2, #4]
 8000bf2:	d1eb      	bne.n	8000bcc <Vector5C+0x2c>
 8000bf4:	2300      	movs	r3, #0
 8000bf6:	f383 8811 	msr	BASEPRI, r3

  OSAL_IRQ_EPILOGUE();
}
 8000bfa:	e8bd 40f8 	ldmia.w	sp!, {r3, r4, r5, r6, r7, lr}
  OSAL_IRQ_EPILOGUE();
 8000bfe:	f7ff bbd7 	b.w	80003b0 <__port_irq_epilogue>
 8000c02:	bf00      	nop
 8000c04:	40010400 	.word	0x40010400
 8000c08:	20001cc0 	.word	0x20001cc0
 8000c0c:	20001cd0 	.word	0x20001cd0

08000c10 <Vector60>:
OSAL_IRQ_HANDLER(Vector60) {
  uint32_t pr;

  OSAL_IRQ_PROLOGUE();

  pr = EXTI->PR;
 8000c10:	4a18      	ldr	r2, [pc, #96]	@ (8000c74 <Vector60+0x64>)
OSAL_IRQ_HANDLER(Vector60) {
 8000c12:	b5f8      	push	{r3, r4, r5, r6, r7, lr}
  pr = EXTI->PR;
 8000c14:	6951      	ldr	r1, [r2, #20]
  pr &= EXTI->IMR & (1U << 2);
 8000c16:	6813      	ldr	r3, [r2, #0]
 8000c18:	400b      	ands	r3, r1
 8000c1a:	f003 0304 	and.w	r3, r3, #4
  EXTI->PR = pr;
 8000c1e:	6153      	str	r3, [r2, #20]

  exti_serve_irq(pr, 2);
 8000c20:	b31b      	cbz	r3, 8000c6a <Vector60+0x5a>
 8000c22:	4f15      	ldr	r7, [pc, #84]	@ (8000c78 <Vector60+0x68>)
 8000c24:	6abb      	ldr	r3, [r7, #40]	@ 0x28
 8000c26:	b10b      	cbz	r3, 8000c2c <Vector60+0x1c>
 8000c28:	6af8      	ldr	r0, [r7, #44]	@ 0x2c
 8000c2a:	4798      	blx	r3
 8000c2c:	2330      	movs	r3, #48	@ 0x30
 8000c2e:	f383 8811 	msr	BASEPRI, r3
 8000c32:	4c12      	ldr	r4, [pc, #72]	@ (8000c7c <Vector60+0x6c>)
  return (bool)(qp->next != qp);
 8000c34:	6a39      	ldr	r1, [r7, #32]
 8000c36:	42a1      	cmp	r1, r4
 8000c38:	d014      	beq.n	8000c64 <Vector60+0x54>
 8000c3a:	2600      	movs	r6, #0
 8000c3c:	460b      	mov	r3, r1
  qp->next       = p->next;
 8000c3e:	6809      	ldr	r1, [r1, #0]
  return threadref(ch_pqueue_insert_behind(&tp->owner->rlist.pqueue,
 8000c40:	699a      	ldr	r2, [r3, #24]
  } while (unlikely(pqp->prio >= p->prio));
 8000c42:	689d      	ldr	r5, [r3, #8]
  qp->next       = p->next;
 8000c44:	6239      	str	r1, [r7, #32]
  qp->next->prev = qp;
 8000c46:	604c      	str	r4, [r1, #4]
 8000c48:	629e      	str	r6, [r3, #40]	@ 0x28
  tp->state = CH_STATE_READY;
 8000c4a:	f883 6024 	strb.w	r6, [r3, #36]	@ 0x24
    pqp = pqp->next;
 8000c4e:	6812      	ldr	r2, [r2, #0]
  } while (unlikely(pqp->prio >= p->prio));
 8000c50:	6890      	ldr	r0, [r2, #8]
 8000c52:	42a8      	cmp	r0, r5
 8000c54:	d2fb      	bcs.n	8000c4e <Vector60+0x3e>
  p->prev       = pqp->prev;
 8000c56:	6850      	ldr	r0, [r2, #4]
 8000c58:	42a1      	cmp	r1, r4
 8000c5a:	e9c3 2000 	strd	r2, r0, [r3]
  p->prev->next = p;
 8000c5e:	6003      	str	r3, [r0, #0]
  pqp->prev     = p;
 8000c60:	6053      	str	r3, [r2, #4]
 8000c62:	d1eb      	bne.n	8000c3c <Vector60+0x2c>
 8000c64:	2300      	movs	r3, #0
 8000c66:	f383 8811 	msr	BASEPRI, r3

  OSAL_IRQ_EPILOGUE();
}
 8000c6a:	e8bd 40f8 	ldmia.w	sp!, {r3, r4, r5, r6, r7, lr}
  OSAL_IRQ_EPILOGUE();
 8000c6e:	f7ff bb9f 	b.w	80003b0 <__port_irq_epilogue>
 8000c72:	bf00      	nop
 8000c74:	40010400 	.word	0x40010400
 8000c78:	20001cc0 	.word	0x20001cc0
 8000c7c:	20001ce0 	.word	0x20001ce0

08000c80 <Vector64>:
OSAL_IRQ_HANDLER(Vector64) {
  uint32_t pr;

  OSAL_IRQ_PROLOGUE();

  pr = EXTI->PR;
 8000c80:	4a18      	ldr	r2, [pc, #96]	@ (8000ce4 <Vector64+0x64>)
OSAL_IRQ_HANDLER(Vector64) {
 8000c82:	b5f8      	push	{r3, r4, r5, r6, r7, lr}
  pr = EXTI->PR;
 8000c84:	6951      	ldr	r1, [r2, #20]
  pr &= EXTI->IMR & (1U << 3);
 8000c86:	6813      	ldr	r3, [r2, #0]
 8000c88:	400b      	ands	r3, r1
 8000c8a:	f003 0308 	and.w	r3, r3, #8
  EXTI->PR = pr;
 8000c8e:	6153      	str	r3, [r2, #20]

  exti_serve_irq(pr, 3);
 8000c90:	b31b      	cbz	r3, 8000cda <Vector64+0x5a>
 8000c92:	4f15      	ldr	r7, [pc, #84]	@ (8000ce8 <Vector64+0x68>)
 8000c94:	6bbb      	ldr	r3, [r7, #56]	@ 0x38
 8000c96:	b10b      	cbz	r3, 8000c9c <Vector64+0x1c>
 8000c98:	6bf8      	ldr	r0, [r7, #60]	@ 0x3c
 8000c9a:	4798      	blx	r3
 8000c9c:	2330      	movs	r3, #48	@ 0x30
 8000c9e:	f383 8811 	msr	BASEPRI, r3
 8000ca2:	4c12      	ldr	r4, [pc, #72]	@ (8000cec <Vector64+0x6c>)
  return (bool)(qp->next != qp);
 8000ca4:	6b39      	ldr	r1, [r7, #48]	@ 0x30
 8000ca6:	42a1      	cmp	r1, r4
 8000ca8:	d014      	beq.n	8000cd4 <Vector64+0x54>
 8000caa:	2600      	movs	r6, #0
 8000cac:	460b      	mov	r3, r1
  qp->next       = p->next;
 8000cae:	6809      	ldr	r1, [r1, #0]
  return threadref(ch_pqueue_insert_behind(&tp->owner->rlist.pqueue,
 8000cb0:	699a      	ldr	r2, [r3, #24]
  } while (unlikely(pqp->prio >= p->prio));
 8000cb2:	689d      	ldr	r5, [r3, #8]
  qp->next       = p->next;
 8000cb4:	6339      	str	r1, [r7, #48]	@ 0x30
  qp->next->prev = qp;
 8000cb6:	604c      	str	r4, [r1, #4]
 8000cb8:	629e      	str	r6, [r3, #40]	@ 0x28
  tp->state = CH_STATE_READY;
 8000cba:	f883 6024 	strb.w	r6, [r3, #36]	@ 0x24
    pqp = pqp->next;
 8000cbe:	6812      	ldr	r2, [r2, #0]
  } while (unlikely(pqp->prio >= p->prio));
 8000cc0:	6890      	ldr	r0, [r2, #8]
 8000cc2:	42a8      	cmp	r0, r5
 8000cc4:	d2fb      	bcs.n	8000cbe <Vector64+0x3e>
  p->prev       = pqp->prev;
 8000cc6:	6850      	ldr	r0, [r2, #4]
 8000cc8:	42a1      	cmp	r1, r4
 8000cca:	e9c3 2000 	strd	r2, r0, [r3]
  p->prev->next = p;
 8000cce:	6003      	str	r3, [r0, #0]
  pqp->prev     = p;
 8000cd0:	6053      	str	r3, [r2, #4]
 8000cd2:	d1eb      	bne.n	8000cac <Vector64+0x2c>
 8000cd4:	2300      	movs	r3, #0
 8000cd6:	f383 8811 	msr	BASEPRI, r3

  OSAL_IRQ_EPILOGUE();
}
 8000cda:	e8bd 40f8 	ldmia.w	sp!, {r3, r4, r5, r6, r7, lr}
  OSAL_IRQ_EPILOGUE();
 8000cde:	f7ff bb67 	b.w	80003b0 <__port_irq_epilogue>
 8000ce2:	bf00      	nop
 8000ce4:	40010400 	.word	0x40010400
 8000ce8:	20001cc0 	.word	0x20001cc0
 8000cec:	20001cf0 	.word	0x20001cf0

08000cf0 <Vector68>:
OSAL_IRQ_HANDLER(Vector68) {
  uint32_t pr;

  OSAL_IRQ_PROLOGUE();

  pr = EXTI->PR;
 8000cf0:	4a18      	ldr	r2, [pc, #96]	@ (8000d54 <Vector68+0x64>)
OSAL_IRQ_HANDLER(Vector68) {
 8000cf2:	b5f8      	push	{r3, r4, r5, r6, r7, lr}
  pr = EXTI->PR;
 8000cf4:	6951      	ldr	r1, [r2, #20]
  pr &= EXTI->IMR & (1U << 4);
 8000cf6:	6813      	ldr	r3, [r2, #0]
 8000cf8:	400b      	ands	r3, r1
 8000cfa:	f003 0310 	and.w	r3, r3, #16
  EXTI->PR = pr;
 8000cfe:	6153      	str	r3, [r2, #20]

  exti_serve_irq(pr, 4);
 8000d00:	b31b      	cbz	r3, 8000d4a <Vector68+0x5a>
 8000d02:	4f15      	ldr	r7, [pc, #84]	@ (8000d58 <Vector68+0x68>)
 8000d04:	6cbb      	ldr	r3, [r7, #72]	@ 0x48
 8000d06:	b10b      	cbz	r3, 8000d0c <Vector68+0x1c>
 8000d08:	6cf8      	ldr	r0, [r7, #76]	@ 0x4c
 8000d0a:	4798      	blx	r3
 8000d0c:	2330      	movs	r3, #48	@ 0x30
 8000d0e:	f383 8811 	msr	BASEPRI, r3
 8000d12:	4c12      	ldr	r4, [pc, #72]	@ (8000d5c <Vector68+0x6c>)
  return (bool)(qp->next != qp);
 8000d14:	6c39      	ldr	r1, [r7, #64]	@ 0x40
 8000d16:	42a1      	cmp	r1, r4
 8000d18:	d014      	beq.n	8000d44 <Vector68+0x54>
 8000d1a:	2600      	movs	r6, #0
 8000d1c:	460b      	mov	r3, r1
  qp->next       = p->next;
 8000d1e:	6809      	ldr	r1, [r1, #0]
  return threadref(ch_pqueue_insert_behind(&tp->owner->rlist.pqueue,
 8000d20:	699a      	ldr	r2, [r3, #24]
  } while (unlikely(pqp->prio >= p->prio));
 8000d22:	689d      	ldr	r5, [r3, #8]
  qp->next       = p->next;
 8000d24:	6439      	str	r1, [r7, #64]	@ 0x40
  qp->next->prev = qp;
 8000d26:	604c      	str	r4, [r1, #4]
 8000d28:	629e      	str	r6, [r3, #40]	@ 0x28
  tp->state = CH_STATE_READY;
 8000d2a:	f883 6024 	strb.w	r6, [r3, #36]	@ 0x24
    pqp = pqp->next;
 8000d2e:	6812      	ldr	r2, [r2, #0]
  } while (unlikely(pqp->prio >= p->prio));
 8000d30:	6890      	ldr	r0, [r2, #8]
 8000d32:	42a8      	cmp	r0, r5
 8000d34:	d2fb      	bcs.n	8000d2e <Vector68+0x3e>
  p->prev       = pqp->prev;
 8000d36:	6850      	ldr	r0, [r2, #4]
 8000d38:	42a1      	cmp	r1, r4
 8000d3a:	e9c3 2000 	strd	r2, r0, [r3]
  p->prev->next = p;
 8000d3e:	6003      	str	r3, [r0, #0]
  pqp->prev     = p;
 8000d40:	6053      	str	r3, [r2, #4]
 8000d42:	d1eb      	bne.n	8000d1c <Vector68+0x2c>
 8000d44:	2300      	movs	r3, #0
 8000d46:	f383 8811 	msr	BASEPRI, r3

  OSAL_IRQ_EPILOGUE();
}
 8000d4a:	e8bd 40f8 	ldmia.w	sp!, {r3, r4, r5, r6, r7, lr}
  OSAL_IRQ_EPILOGUE();
 8000d4e:	f7ff bb2f 	b.w	80003b0 <__port_irq_epilogue>
 8000d52:	bf00      	nop
 8000d54:	40010400 	.word	0x40010400
 8000d58:	20001cc0 	.word	0x20001cc0
 8000d5c:	20001d00 	.word	0x20001d00

08000d60 <Vector9C>:
/**
 * @brief   EXTI[5]...EXTI[9] interrupt handler.
 *
 * @isr
 */
OSAL_IRQ_HANDLER(Vector9C) {
 8000d60:	b5f8      	push	{r3, r4, r5, r6, r7, lr}
  uint32_t pr;

  OSAL_IRQ_PROLOGUE();

  pr = EXTI->PR;
 8000d62:	4b6c      	ldr	r3, [pc, #432]	@ (8000f14 <Vector9C+0x1b4>)
 8000d64:	695a      	ldr	r2, [r3, #20]
  pr &= EXTI->IMR & ((1U << 5) | (1U << 6) | (1U << 7) | (1U << 8) |
 8000d66:	681d      	ldr	r5, [r3, #0]
 8000d68:	4015      	ands	r5, r2
 8000d6a:	f405 7278 	and.w	r2, r5, #992	@ 0x3e0
                     (1U << 9));
  EXTI->PR = pr;

  exti_serve_irq(pr, 5);
 8000d6e:	06ac      	lsls	r4, r5, #26
  EXTI->PR = pr;
 8000d70:	615a      	str	r2, [r3, #20]
  exti_serve_irq(pr, 5);
 8000d72:	d525      	bpl.n	8000dc0 <Vector9C+0x60>
 8000d74:	4c68      	ldr	r4, [pc, #416]	@ (8000f18 <Vector9C+0x1b8>)
 8000d76:	6da3      	ldr	r3, [r4, #88]	@ 0x58
 8000d78:	b10b      	cbz	r3, 8000d7e <Vector9C+0x1e>
 8000d7a:	6de0      	ldr	r0, [r4, #92]	@ 0x5c
 8000d7c:	4798      	blx	r3
 8000d7e:	2330      	movs	r3, #48	@ 0x30
 8000d80:	f383 8811 	msr	BASEPRI, r3
 8000d84:	4e65      	ldr	r6, [pc, #404]	@ (8000f1c <Vector9C+0x1bc>)
  return (bool)(qp->next != qp);
 8000d86:	6d21      	ldr	r1, [r4, #80]	@ 0x50
 8000d88:	42b1      	cmp	r1, r6
 8000d8a:	d016      	beq.n	8000dba <Vector9C+0x5a>
 8000d8c:	f04f 0c00 	mov.w	ip, #0
 8000d90:	460b      	mov	r3, r1
  qp->next       = p->next;
 8000d92:	6809      	ldr	r1, [r1, #0]
  return threadref(ch_pqueue_insert_behind(&tp->owner->rlist.pqueue,
 8000d94:	699a      	ldr	r2, [r3, #24]
  } while (unlikely(pqp->prio >= p->prio));
 8000d96:	689f      	ldr	r7, [r3, #8]
  qp->next       = p->next;
 8000d98:	6521      	str	r1, [r4, #80]	@ 0x50
  qp->next->prev = qp;
 8000d9a:	604e      	str	r6, [r1, #4]
 8000d9c:	f8c3 c028 	str.w	ip, [r3, #40]	@ 0x28
  tp->state = CH_STATE_READY;
 8000da0:	f883 c024 	strb.w	ip, [r3, #36]	@ 0x24
    pqp = pqp->next;
 8000da4:	6812      	ldr	r2, [r2, #0]
  } while (unlikely(pqp->prio >= p->prio));
 8000da6:	6890      	ldr	r0, [r2, #8]
 8000da8:	42b8      	cmp	r0, r7
 8000daa:	d2fb      	bcs.n	8000da4 <Vector9C+0x44>
  p->prev       = pqp->prev;
 8000dac:	6850      	ldr	r0, [r2, #4]
 8000dae:	42b1      	cmp	r1, r6
 8000db0:	e9c3 2000 	strd	r2, r0, [r3]
  p->prev->next = p;
 8000db4:	6003      	str	r3, [r0, #0]
  pqp->prev     = p;
 8000db6:	6053      	str	r3, [r2, #4]
 8000db8:	d1ea      	bne.n	8000d90 <Vector9C+0x30>
 8000dba:	2300      	movs	r3, #0
 8000dbc:	f383 8811 	msr	BASEPRI, r3
  exti_serve_irq(pr, 6);
 8000dc0:	0668      	lsls	r0, r5, #25
 8000dc2:	d525      	bpl.n	8000e10 <Vector9C+0xb0>
 8000dc4:	4c54      	ldr	r4, [pc, #336]	@ (8000f18 <Vector9C+0x1b8>)
 8000dc6:	6ea3      	ldr	r3, [r4, #104]	@ 0x68
 8000dc8:	b10b      	cbz	r3, 8000dce <Vector9C+0x6e>
 8000dca:	6ee0      	ldr	r0, [r4, #108]	@ 0x6c
 8000dcc:	4798      	blx	r3
 8000dce:	2330      	movs	r3, #48	@ 0x30
 8000dd0:	f383 8811 	msr	BASEPRI, r3
 8000dd4:	4e52      	ldr	r6, [pc, #328]	@ (8000f20 <Vector9C+0x1c0>)
  return (bool)(qp->next != qp);
 8000dd6:	6e21      	ldr	r1, [r4, #96]	@ 0x60
 8000dd8:	42b1      	cmp	r1, r6
 8000dda:	d016      	beq.n	8000e0a <Vector9C+0xaa>
 8000ddc:	f04f 0c00 	mov.w	ip, #0
 8000de0:	460b      	mov	r3, r1
  qp->next       = p->next;
 8000de2:	6809      	ldr	r1, [r1, #0]
  return threadref(ch_pqueue_insert_behind(&tp->owner->rlist.pqueue,
 8000de4:	699a      	ldr	r2, [r3, #24]
  } while (unlikely(pqp->prio >= p->prio));
 8000de6:	689f      	ldr	r7, [r3, #8]
  qp->next       = p->next;
 8000de8:	6621      	str	r1, [r4, #96]	@ 0x60
  qp->next->prev = qp;
 8000dea:	604e      	str	r6, [r1, #4]
 8000dec:	f8c3 c028 	str.w	ip, [r3, #40]	@ 0x28
  tp->state = CH_STATE_READY;
 8000df0:	f883 c024 	strb.w	ip, [r3, #36]	@ 0x24
    pqp = pqp->next;
 8000df4:	6812      	ldr	r2, [r2, #0]
  } while (unlikely(pqp->prio >= p->prio));
 8000df6:	6890      	ldr	r0, [r2, #8]
 8000df8:	42b8      	cmp	r0, r7
 8000dfa:	d2fb      	bcs.n	8000df4 <Vector9C+0x94>
  p->prev       = pqp->prev;
 8000dfc:	6850      	ldr	r0, [r2, #4]
 8000dfe:	42b1      	cmp	r1, r6
 8000e00:	e9c3 2000 	strd	r2, r0, [r3]
  p->prev->next = p;
 8000e04:	6003      	str	r3, [r0, #0]
  pqp->prev     = p;
 8000e06:	6053      	str	r3, [r2, #4]
 8000e08:	d1ea      	bne.n	8000de0 <Vector9C+0x80>
 8000e0a:	2300      	movs	r3, #0
 8000e0c:	f383 8811 	msr	BASEPRI, r3
  exti_serve_irq(pr, 7);
 8000e10:	0629      	lsls	r1, r5, #24
 8000e12:	d525      	bpl.n	8000e60 <Vector9C+0x100>
 8000e14:	4c40      	ldr	r4, [pc, #256]	@ (8000f18 <Vector9C+0x1b8>)
 8000e16:	6fa3      	ldr	r3, [r4, #120]	@ 0x78
 8000e18:	b10b      	cbz	r3, 8000e1e <Vector9C+0xbe>
 8000e1a:	6fe0      	ldr	r0, [r4, #124]	@ 0x7c
 8000e1c:	4798      	blx	r3
 8000e1e:	2330      	movs	r3, #48	@ 0x30
 8000e20:	f383 8811 	msr	BASEPRI, r3
 8000e24:	4e3f      	ldr	r6, [pc, #252]	@ (8000f24 <Vector9C+0x1c4>)
  return (bool)(qp->next != qp);
 8000e26:	6f21      	ldr	r1, [r4, #112]	@ 0x70
 8000e28:	42b1      	cmp	r1, r6
 8000e2a:	d016      	beq.n	8000e5a <Vector9C+0xfa>
 8000e2c:	f04f 0c00 	mov.w	ip, #0
 8000e30:	460b      	mov	r3, r1
  qp->next       = p->next;
 8000e32:	6809      	ldr	r1, [r1, #0]
  return threadref(ch_pqueue_insert_behind(&tp->owner->rlist.pqueue,
 8000e34:	699a      	ldr	r2, [r3, #24]
  } while (unlikely(pqp->prio >= p->prio));
 8000e36:	689f      	ldr	r7, [r3, #8]
  qp->next       = p->next;
 8000e38:	6721      	str	r1, [r4, #112]	@ 0x70
  qp->next->prev = qp;
 8000e3a:	604e      	str	r6, [r1, #4]
 8000e3c:	f8c3 c028 	str.w	ip, [r3, #40]	@ 0x28
  tp->state = CH_STATE_READY;
 8000e40:	f883 c024 	strb.w	ip, [r3, #36]	@ 0x24
    pqp = pqp->next;
 8000e44:	6812      	ldr	r2, [r2, #0]
  } while (unlikely(pqp->prio >= p->prio));
 8000e46:	6890      	ldr	r0, [r2, #8]
 8000e48:	42b8      	cmp	r0, r7
 8000e4a:	d2fb      	bcs.n	8000e44 <Vector9C+0xe4>
  p->prev       = pqp->prev;
 8000e4c:	6850      	ldr	r0, [r2, #4]
 8000e4e:	42b1      	cmp	r1, r6
 8000e50:	e9c3 2000 	strd	r2, r0, [r3]
  p->prev->next = p;
 8000e54:	6003      	str	r3, [r0, #0]
  pqp->prev     = p;
 8000e56:	6053      	str	r3, [r2, #4]
 8000e58:	d1ea      	bne.n	8000e30 <Vector9C+0xd0>
 8000e5a:	2300      	movs	r3, #0
 8000e5c:	f383 8811 	msr	BASEPRI, r3
  exti_serve_irq(pr, 8);
 8000e60:	05ea      	lsls	r2, r5, #23
 8000e62:	d529      	bpl.n	8000eb8 <Vector9C+0x158>
 8000e64:	4c2c      	ldr	r4, [pc, #176]	@ (8000f18 <Vector9C+0x1b8>)
 8000e66:	f8d4 3088 	ldr.w	r3, [r4, #136]	@ 0x88
 8000e6a:	b113      	cbz	r3, 8000e72 <Vector9C+0x112>
 8000e6c:	f8d4 008c 	ldr.w	r0, [r4, #140]	@ 0x8c
 8000e70:	4798      	blx	r3
 8000e72:	2330      	movs	r3, #48	@ 0x30
 8000e74:	f383 8811 	msr	BASEPRI, r3
 8000e78:	4e2b      	ldr	r6, [pc, #172]	@ (8000f28 <Vector9C+0x1c8>)
  return (bool)(qp->next != qp);
 8000e7a:	f8d4 1080 	ldr.w	r1, [r4, #128]	@ 0x80
 8000e7e:	42b1      	cmp	r1, r6
 8000e80:	d017      	beq.n	8000eb2 <Vector9C+0x152>
 8000e82:	f04f 0c00 	mov.w	ip, #0
 8000e86:	460b      	mov	r3, r1
  qp->next       = p->next;
 8000e88:	6809      	ldr	r1, [r1, #0]
  return threadref(ch_pqueue_insert_behind(&tp->owner->rlist.pqueue,
 8000e8a:	699a      	ldr	r2, [r3, #24]
  } while (unlikely(pqp->prio >= p->prio));
 8000e8c:	689f      	ldr	r7, [r3, #8]
  qp->next       = p->next;
 8000e8e:	f8c4 1080 	str.w	r1, [r4, #128]	@ 0x80
  qp->next->prev = qp;
 8000e92:	604e      	str	r6, [r1, #4]
 8000e94:	f8c3 c028 	str.w	ip, [r3, #40]	@ 0x28
  tp->state = CH_STATE_READY;
 8000e98:	f883 c024 	strb.w	ip, [r3, #36]	@ 0x24
    pqp = pqp->next;
 8000e9c:	6812      	ldr	r2, [r2, #0]
  } while (unlikely(pqp->prio >= p->prio));
 8000e9e:	6890      	ldr	r0, [r2, #8]
 8000ea0:	42b8      	cmp	r0, r7
 8000ea2:	d2fb      	bcs.n	8000e9c <Vector9C+0x13c>
  p->prev       = pqp->prev;
 8000ea4:	6850      	ldr	r0, [r2, #4]
 8000ea6:	42b1      	cmp	r1, r6
 8000ea8:	e9c3 2000 	strd	r2, r0, [r3]
  p->prev->next = p;
 8000eac:	6003      	str	r3, [r0, #0]
  pqp->prev     = p;
 8000eae:	6053      	str	r3, [r2, #4]
 8000eb0:	d1e9      	bne.n	8000e86 <Vector9C+0x126>
 8000eb2:	2300      	movs	r3, #0
 8000eb4:	f383 8811 	msr	BASEPRI, r3
  exti_serve_irq(pr, 9);
 8000eb8:	05ab      	lsls	r3, r5, #22
 8000eba:	d527      	bpl.n	8000f0c <Vector9C+0x1ac>
 8000ebc:	4c16      	ldr	r4, [pc, #88]	@ (8000f18 <Vector9C+0x1b8>)
 8000ebe:	f8d4 3098 	ldr.w	r3, [r4, #152]	@ 0x98
 8000ec2:	b113      	cbz	r3, 8000eca <Vector9C+0x16a>
 8000ec4:	f8d4 009c 	ldr.w	r0, [r4, #156]	@ 0x9c
 8000ec8:	4798      	blx	r3
 8000eca:	2330      	movs	r3, #48	@ 0x30
 8000ecc:	f383 8811 	msr	BASEPRI, r3
 8000ed0:	4d16      	ldr	r5, [pc, #88]	@ (8000f2c <Vector9C+0x1cc>)
  return (bool)(qp->next != qp);
 8000ed2:	f8d4 1090 	ldr.w	r1, [r4, #144]	@ 0x90
 8000ed6:	42a9      	cmp	r1, r5
 8000ed8:	d015      	beq.n	8000f06 <Vector9C+0x1a6>
 8000eda:	2700      	movs	r7, #0
 8000edc:	460b      	mov	r3, r1
  qp->next       = p->next;
 8000ede:	6809      	ldr	r1, [r1, #0]
  return threadref(ch_pqueue_insert_behind(&tp->owner->rlist.pqueue,
 8000ee0:	699a      	ldr	r2, [r3, #24]
  } while (unlikely(pqp->prio >= p->prio));
 8000ee2:	689e      	ldr	r6, [r3, #8]
  qp->next       = p->next;
 8000ee4:	f8c4 1090 	str.w	r1, [r4, #144]	@ 0x90
  qp->next->prev = qp;
 8000ee8:	604d      	str	r5, [r1, #4]
 8000eea:	629f      	str	r7, [r3, #40]	@ 0x28
  tp->state = CH_STATE_READY;
 8000eec:	f883 7024 	strb.w	r7, [r3, #36]	@ 0x24
    pqp = pqp->next;
 8000ef0:	6812      	ldr	r2, [r2, #0]
  } while (unlikely(pqp->prio >= p->prio));
 8000ef2:	6890      	ldr	r0, [r2, #8]
 8000ef4:	42b0      	cmp	r0, r6
 8000ef6:	d2fb      	bcs.n	8000ef0 <Vector9C+0x190>
  p->prev       = pqp->prev;
 8000ef8:	6850      	ldr	r0, [r2, #4]
 8000efa:	42a9      	cmp	r1, r5
 8000efc:	e9c3 2000 	strd	r2, r0, [r3]
  p->prev->next = p;
 8000f00:	6003      	str	r3, [r0, #0]
  pqp->prev     = p;
 8000f02:	6053      	str	r3, [r2, #4]
 8000f04:	d1ea      	bne.n	8000edc <Vector9C+0x17c>
 8000f06:	2300      	movs	r3, #0
 8000f08:	f383 8811 	msr	BASEPRI, r3

  OSAL_IRQ_EPILOGUE();
}
 8000f0c:	e8bd 40f8 	ldmia.w	sp!, {r3, r4, r5, r6, r7, lr}
  OSAL_IRQ_EPILOGUE();
 8000f10:	f7ff ba4e 	b.w	80003b0 <__port_irq_epilogue>
 8000f14:	40010400 	.word	0x40010400
 8000f18:	20001cc0 	.word	0x20001cc0
 8000f1c:	20001d10 	.word	0x20001d10
 8000f20:	20001d20 	.word	0x20001d20
 8000f24:	20001d30 	.word	0x20001d30
 8000f28:	20001d40 	.word	0x20001d40
 8000f2c:	20001d50 	.word	0x20001d50

08000f30 <VectorE0>:
/**
 * @brief   EXTI[10]...EXTI[15] interrupt handler.
 *
 * @isr
 */
OSAL_IRQ_HANDLER(VectorE0) {
 8000f30:	b5f8      	push	{r3, r4, r5, r6, r7, lr}
  uint32_t pr;

  OSAL_IRQ_PROLOGUE();

  pr = EXTI->PR;
 8000f32:	4b88      	ldr	r3, [pc, #544]	@ (8001154 <VectorE0+0x224>)
 8000f34:	695a      	ldr	r2, [r3, #20]
  pr &= EXTI->IMR & ((1U << 10) | (1U << 11) | (1U << 12) | (1U << 13) |
 8000f36:	681d      	ldr	r5, [r3, #0]
 8000f38:	4015      	ands	r5, r2
 8000f3a:	f405 427c 	and.w	r2, r5, #64512	@ 0xfc00
                     (1U << 14) | (1U << 15));
  EXTI->PR = pr;

  exti_serve_irq(pr, 10);
 8000f3e:	056e      	lsls	r6, r5, #21
  EXTI->PR = pr;
 8000f40:	615a      	str	r2, [r3, #20]
  exti_serve_irq(pr, 10);
 8000f42:	d529      	bpl.n	8000f98 <VectorE0+0x68>
 8000f44:	4c84      	ldr	r4, [pc, #528]	@ (8001158 <VectorE0+0x228>)
 8000f46:	f8d4 30a8 	ldr.w	r3, [r4, #168]	@ 0xa8
 8000f4a:	b113      	cbz	r3, 8000f52 <VectorE0+0x22>
 8000f4c:	f8d4 00ac 	ldr.w	r0, [r4, #172]	@ 0xac
 8000f50:	4798      	blx	r3
 8000f52:	2330      	movs	r3, #48	@ 0x30
 8000f54:	f383 8811 	msr	BASEPRI, r3
 8000f58:	4e80      	ldr	r6, [pc, #512]	@ (800115c <VectorE0+0x22c>)
  return (bool)(qp->next != qp);
 8000f5a:	f8d4 10a0 	ldr.w	r1, [r4, #160]	@ 0xa0
 8000f5e:	42b1      	cmp	r1, r6
 8000f60:	d017      	beq.n	8000f92 <VectorE0+0x62>
 8000f62:	f04f 0c00 	mov.w	ip, #0
 8000f66:	460b      	mov	r3, r1
  qp->next       = p->next;
 8000f68:	6809      	ldr	r1, [r1, #0]
  return threadref(ch_pqueue_insert_behind(&tp->owner->rlist.pqueue,
 8000f6a:	699a      	ldr	r2, [r3, #24]
  } while (unlikely(pqp->prio >= p->prio));
 8000f6c:	689f      	ldr	r7, [r3, #8]
  qp->next       = p->next;
 8000f6e:	f8c4 10a0 	str.w	r1, [r4, #160]	@ 0xa0
  qp->next->prev = qp;
 8000f72:	604e      	str	r6, [r1, #4]
 8000f74:	f8c3 c028 	str.w	ip, [r3, #40]	@ 0x28
  tp->state = CH_STATE_READY;
 8000f78:	f883 c024 	strb.w	ip, [r3, #36]	@ 0x24
    pqp = pqp->next;
 8000f7c:	6812      	ldr	r2, [r2, #0]
  } while (unlikely(pqp->prio >= p->prio));
 8000f7e:	6890      	ldr	r0, [r2, #8]
 8000f80:	42b8      	cmp	r0, r7
 8000f82:	d2fb      	bcs.n	8000f7c <VectorE0+0x4c>
  p->prev       = pqp->prev;
 8000f84:	6850      	ldr	r0, [r2, #4]
 8000f86:	42b1      	cmp	r1, r6
 8000f88:	e9c3 2000 	strd	r2, r0, [r3]
  p->prev->next = p;
 8000f8c:	6003      	str	r3, [r0, #0]
  pqp->prev     = p;
 8000f8e:	6053      	str	r3, [r2, #4]
 8000f90:	d1e9      	bne.n	8000f66 <VectorE0+0x36>
 8000f92:	2300      	movs	r3, #0
 8000f94:	f383 8811 	msr	BASEPRI, r3
  exti_serve_irq(pr, 11);
 8000f98:	052c      	lsls	r4, r5, #20
 8000f9a:	d529      	bpl.n	8000ff0 <VectorE0+0xc0>
 8000f9c:	4c6e      	ldr	r4, [pc, #440]	@ (8001158 <VectorE0+0x228>)
 8000f9e:	f8d4 30b8 	ldr.w	r3, [r4, #184]	@ 0xb8
 8000fa2:	b113      	cbz	r3, 8000faa <VectorE0+0x7a>
 8000fa4:	f8d4 00bc 	ldr.w	r0, [r4, #188]	@ 0xbc
 8000fa8:	4798      	blx	r3
 8000faa:	2330      	movs	r3, #48	@ 0x30
 8000fac:	f383 8811 	msr	BASEPRI, r3
 8000fb0:	4e6b      	ldr	r6, [pc, #428]	@ (8001160 <VectorE0+0x230>)
  return (bool)(qp->next != qp);
 8000fb2:	f8d4 10b0 	ldr.w	r1, [r4, #176]	@ 0xb0
 8000fb6:	42b1      	cmp	r1, r6
 8000fb8:	d017      	beq.n	8000fea <VectorE0+0xba>
 8000fba:	f04f 0c00 	mov.w	ip, #0
 8000fbe:	460b      	mov	r3, r1
  qp->next       = p->next;
 8000fc0:	6809      	ldr	r1, [r1, #0]
  return threadref(ch_pqueue_insert_behind(&tp->owner->rlist.pqueue,
 8000fc2:	699a      	ldr	r2, [r3, #24]
  } while (unlikely(pqp->prio >= p->prio));
 8000fc4:	689f      	ldr	r7, [r3, #8]
  qp->next       = p->next;
 8000fc6:	f8c4 10b0 	str.w	r1, [r4, #176]	@ 0xb0
  qp->next->prev = qp;
 8000fca:	604e      	str	r6, [r1, #4]
 8000fcc:	f8c3 c028 	str.w	ip, [r3, #40]	@ 0x28
  tp->state = CH_STATE_READY;
 8000fd0:	f883 c024 	strb.w	ip, [r3, #36]	@ 0x24
    pqp = pqp->next;
 8000fd4:	6812      	ldr	r2, [r2, #0]
  } while (unlikely(pqp->prio >= p->prio));
 8000fd6:	6890      	ldr	r0, [r2, #8]
 8000fd8:	42b8      	cmp	r0, r7
 8000fda:	d2fb      	bcs.n	8000fd4 <VectorE0+0xa4>
  p->prev       = pqp->prev;
 8000fdc:	6850      	ldr	r0, [r2, #4]
 8000fde:	42b1      	cmp	r1, r6
 8000fe0:	e9c3 2000 	strd	r2, r0, [r3]
  p->prev->next = p;
 8000fe4:	6003      	str	r3, [r0, #0]
  pqp->prev     = p;
 8000fe6:	6053      	str	r3, [r2, #4]
 8000fe8:	d1e9      	bne.n	8000fbe <VectorE0+0x8e>
 8000fea:	2300      	movs	r3, #0
 8000fec:	f383 8811 	msr	BASEPRI, r3
  exti_serve_irq(pr, 12);
 8000ff0:	04e8      	lsls	r0, r5, #19
 8000ff2:	d529      	bpl.n	8001048 <VectorE0+0x118>
 8000ff4:	4c58      	ldr	r4, [pc, #352]	@ (8001158 <VectorE0+0x228>)
 8000ff6:	f8d4 30c8 	ldr.w	r3, [r4, #200]	@ 0xc8
 8000ffa:	b113      	cbz	r3, 8001002 <VectorE0+0xd2>
 8000ffc:	f8d4 00cc 	ldr.w	r0, [r4, #204]	@ 0xcc
 8001000:	4798      	blx	r3
 8001002:	2330      	movs	r3, #48	@ 0x30
 8001004:	f383 8811 	msr	BASEPRI, r3
 8001008:	4e56      	ldr	r6, [pc, #344]	@ (8001164 <VectorE0+0x234>)
  return (bool)(qp->next != qp);
 800100a:	f8d4 10c0 	ldr.w	r1, [r4, #192]	@ 0xc0
 800100e:	42b1      	cmp	r1, r6
 8001010:	d017      	beq.n	8001042 <VectorE0+0x112>
 8001012:	f04f 0c00 	mov.w	ip, #0
 8001016:	460b      	mov	r3, r1
  qp->next       = p->next;
 8001018:	6809      	ldr	r1, [r1, #0]
  return threadref(ch_pqueue_insert_behind(&tp->owner->rlist.pqueue,
 800101a:	699a      	ldr	r2, [r3, #24]
  } while (unlikely(pqp->prio >= p->prio));
 800101c:	689f      	ldr	r7, [r3, #8]
  qp->next       = p->next;
 800101e:	f8c4 10c0 	str.w	r1, [r4, #192]	@ 0xc0
  qp->next->prev = qp;
 8001022:	604e      	str	r6, [r1, #4]
 8001024:	f8c3 c028 	str.w	ip, [r3, #40]	@ 0x28
  tp->state = CH_STATE_READY;
 8001028:	f883 c024 	strb.w	ip, [r3, #36]	@ 0x24
    pqp = pqp->next;
 800102c:	6812      	ldr	r2, [r2, #0]
  } while (unlikely(pqp->prio >= p->prio));
 800102e:	6890      	ldr	r0, [r2, #8]
 8001030:	42b8      	cmp	r0, r7
 8001032:	d2fb      	bcs.n	800102c <VectorE0+0xfc>
  p->prev       = pqp->prev;
 8001034:	6850      	ldr	r0, [r2, #4]
 8001036:	42b1      	cmp	r1, r6
 8001038:	e9c3 2000 	strd	r2, r0, [r3]
  p->prev->next = p;
 800103c:	6003      	str	r3, [r0, #0]
  pqp->prev     = p;
 800103e:	6053      	str	r3, [r2, #4]
 8001040:	d1e9      	bne.n	8001016 <VectorE0+0xe6>
 8001042:	2300      	movs	r3, #0
 8001044:	f383 8811 	msr	BASEPRI, r3
  exti_serve_irq(pr, 13);
 8001048:	04a9      	lsls	r1, r5, #18
 800104a:	d529      	bpl.n	80010a0 <VectorE0+0x170>
 800104c:	4c42      	ldr	r4, [pc, #264]	@ (8001158 <VectorE0+0x228>)
 800104e:	f8d4 30d8 	ldr.w	r3, [r4, #216]	@ 0xd8
 8001052:	b113      	cbz	r3, 800105a <VectorE0+0x12a>
 8001054:	f8d4 00dc 	ldr.w	r0, [r4, #220]	@ 0xdc
 8001058:	4798      	blx	r3
 800105a:	2330      	movs	r3, #48	@ 0x30
 800105c:	f383 8811 	msr	BASEPRI, r3
 8001060:	4e41      	ldr	r6, [pc, #260]	@ (8001168 <VectorE0+0x238>)
  return (bool)(qp->next != qp);
 8001062:	f8d4 10d0 	ldr.w	r1, [r4, #208]	@ 0xd0
 8001066:	42b1      	cmp	r1, r6
 8001068:	d017      	beq.n	800109a <VectorE0+0x16a>
 800106a:	f04f 0c00 	mov.w	ip, #0
 800106e:	460b      	mov	r3, r1
  qp->next       = p->next;
 8001070:	6809      	ldr	r1, [r1, #0]
  return threadref(ch_pqueue_insert_behind(&tp->owner->rlist.pqueue,
 8001072:	699a      	ldr	r2, [r3, #24]
  } while (unlikely(pqp->prio >= p->prio));
 8001074:	689f      	ldr	r7, [r3, #8]
  qp->next       = p->next;
 8001076:	f8c4 10d0 	str.w	r1, [r4, #208]	@ 0xd0
  qp->next->prev = qp;
 800107a:	604e      	str	r6, [r1, #4]
 800107c:	f8c3 c028 	str.w	ip, [r3, #40]	@ 0x28
  tp->state = CH_STATE_READY;
 8001080:	f883 c024 	strb.w	ip, [r3, #36]	@ 0x24
    pqp = pqp->next;
 8001084:	6812      	ldr	r2, [r2, #0]
  } while (unlikely(pqp->prio >= p->prio));
 8001086:	6890      	ldr	r0, [r2, #8]
 8001088:	42b8      	cmp	r0, r7
 800108a:	d2fb      	bcs.n	8001084 <VectorE0+0x154>
  p->prev       = pqp->prev;
 800108c:	6850      	ldr	r0, [r2, #4]
 800108e:	42b1      	cmp	r1, r6
 8001090:	e9c3 2000 	strd	r2, r0, [r3]
  p->prev->next = p;
 8001094:	6003      	str	r3, [r0, #0]
  pqp->prev     = p;
 8001096:	6053      	str	r3, [r2, #4]
 8001098:	d1e9      	bne.n	800106e <VectorE0+0x13e>
 800109a:	2300      	movs	r3, #0
 800109c:	f383 8811 	msr	BASEPRI, r3
  exti_serve_irq(pr, 14);
 80010a0:	046a      	lsls	r2, r5, #17
 80010a2:	d529      	bpl.n	80010f8 <VectorE0+0x1c8>
 80010a4:	4c2c      	ldr	r4, [pc, #176]	@ (8001158 <VectorE0+0x228>)
 80010a6:	f8d4 30e8 	ldr.w	r3, [r4, #232]	@ 0xe8
 80010aa:	b113      	cbz	r3, 80010b2 <VectorE0+0x182>
 80010ac:	f8d4 00ec 	ldr.w	r0, [r4, #236]	@ 0xec
 80010b0:	4798      	blx	r3
 80010b2:	2330      	movs	r3, #48	@ 0x30
 80010b4:	f383 8811 	msr	BASEPRI, r3
 80010b8:	4e2c      	ldr	r6, [pc, #176]	@ (800116c <VectorE0+0x23c>)
  return (bool)(qp->next != qp);
 80010ba:	f8d4 10e0 	ldr.w	r1, [r4, #224]	@ 0xe0
 80010be:	42b1      	cmp	r1, r6
 80010c0:	d017      	beq.n	80010f2 <VectorE0+0x1c2>
 80010c2:	f04f 0c00 	mov.w	ip, #0
 80010c6:	460b      	mov	r3, r1
  qp->next       = p->next;
 80010c8:	6809      	ldr	r1, [r1, #0]
  return threadref(ch_pqueue_insert_behind(&tp->owner->rlist.pqueue,
 80010ca:	699a      	ldr	r2, [r3, #24]
  } while (unlikely(pqp->prio >= p->prio));
 80010cc:	689f      	ldr	r7, [r3, #8]
  qp->next       = p->next;
 80010ce:	f8c4 10e0 	str.w	r1, [r4, #224]	@ 0xe0
  qp->next->prev = qp;
 80010d2:	604e      	str	r6, [r1, #4]
 80010d4:	f8c3 c028 	str.w	ip, [r3, #40]	@ 0x28
  tp->state = CH_STATE_READY;
 80010d8:	f883 c024 	strb.w	ip, [r3, #36]	@ 0x24
    pqp = pqp->next;
 80010dc:	6812      	ldr	r2, [r2, #0]
  } while (unlikely(pqp->prio >= p->prio));
 80010de:	6890      	ldr	r0, [r2, #8]
 80010e0:	42b8      	cmp	r0, r7
 80010e2:	d2fb      	bcs.n	80010dc <VectorE0+0x1ac>
  p->prev       = pqp->prev;
 80010e4:	6850      	ldr	r0, [r2, #4]
 80010e6:	42b1      	cmp	r1, r6
 80010e8:	e9c3 2000 	strd	r2, r0, [r3]
  p->prev->next = p;
 80010ec:	6003      	str	r3, [r0, #0]
  pqp->prev     = p;
 80010ee:	6053      	str	r3, [r2, #4]
 80010f0:	d1e9      	bne.n	80010c6 <VectorE0+0x196>
 80010f2:	2300      	movs	r3, #0
 80010f4:	f383 8811 	msr	BASEPRI, r3
  exti_serve_irq(pr, 15);
 80010f8:	042b      	lsls	r3, r5, #16
 80010fa:	d527      	bpl.n	800114c <VectorE0+0x21c>
 80010fc:	4c16      	ldr	r4, [pc, #88]	@ (8001158 <VectorE0+0x228>)
 80010fe:	f8d4 30f8 	ldr.w	r3, [r4, #248]	@ 0xf8
 8001102:	b113      	cbz	r3, 800110a <VectorE0+0x1da>
 8001104:	f8d4 00fc 	ldr.w	r0, [r4, #252]	@ 0xfc
 8001108:	4798      	blx	r3
 800110a:	2330      	movs	r3, #48	@ 0x30
 800110c:	f383 8811 	msr	BASEPRI, r3
 8001110:	4d17      	ldr	r5, [pc, #92]	@ (8001170 <VectorE0+0x240>)
  return (bool)(qp->next != qp);
 8001112:	f8d4 10f0 	ldr.w	r1, [r4, #240]	@ 0xf0
 8001116:	42a9      	cmp	r1, r5
 8001118:	d015      	beq.n	8001146 <VectorE0+0x216>
 800111a:	2700      	movs	r7, #0
 800111c:	460b      	mov	r3, r1
  qp->next       = p->next;
 800111e:	6809      	ldr	r1, [r1, #0]
  return threadref(ch_pqueue_insert_behind(&tp->owner->rlist.pqueue,
 8001120:	699a      	ldr	r2, [r3, #24]
  } while (unlikely(pqp->prio >= p->prio));
 8001122:	689e      	ldr	r6, [r3, #8]
  qp->next       = p->next;
 8001124:	f8c4 10f0 	str.w	r1, [r4, #240]	@ 0xf0
  qp->next->prev = qp;
 8001128:	604d      	str	r5, [r1, #4]
 800112a:	629f      	str	r7, [r3, #40]	@ 0x28
  tp->state = CH_STATE_READY;
 800112c:	f883 7024 	strb.w	r7, [r3, #36]	@ 0x24
    pqp = pqp->next;
 8001130:	6812      	ldr	r2, [r2, #0]
  } while (unlikely(pqp->prio >= p->prio));
 8001132:	6890      	ldr	r0, [r2, #8]
 8001134:	42b0      	cmp	r0, r6
 8001136:	d2fb      	bcs.n	8001130 <VectorE0+0x200>
  p->prev       = pqp->prev;
 8001138:	6850      	ldr	r0, [r2, #4]
 800113a:	42a9      	cmp	r1, r5
 800113c:	e9c3 2000 	strd	r2, r0, [r3]
  p->prev->next = p;
 8001140:	6003      	str	r3, [r0, #0]
  pqp->prev     = p;
 8001142:	6053      	str	r3, [r2, #4]
 8001144:	d1ea      	bne.n	800111c <VectorE0+0x1ec>
 8001146:	2300      	movs	r3, #0
 8001148:	f383 8811 	msr	BASEPRI, r3

  OSAL_IRQ_EPILOGUE();
}
 800114c:	e8bd 40f8 	ldmia.w	sp!, {r3, r4, r5, r6, r7, lr}
  OSAL_IRQ_EPILOGUE();
 8001150:	f7ff b92e 	b.w	80003b0 <__port_irq_epilogue>
 8001154:	40010400 	.word	0x40010400
 8001158:	20001cc0 	.word	0x20001cc0
 800115c:	20001d60 	.word	0x20001d60
 8001160:	20001d70 	.word	0x20001d70
 8001164:	20001d80 	.word	0x20001d80
 8001168:	20001d90 	.word	0x20001d90
 800116c:	20001da0 	.word	0x20001da0
 8001170:	20001db0 	.word	0x20001db0
	...

08001180 <SysTick_Handler>:
/**
 * @brief   Interrupt handler.
 *
 * @isr
 */
OSAL_IRQ_HANDLER(ST_HANDLER) {
 8001180:	b570      	push	{r4, r5, r6, lr}
 8001182:	2630      	movs	r6, #48	@ 0x30
 8001184:	f386 8811 	msr	BASEPRI, r6
  virtual_timers_list_t *vtlp = &currcore->vtlist;

  chDbgCheckClassI();

#if CH_CFG_ST_TIMEDELTA == 0
  vtlp->systime++;
 8001188:	4d1f      	ldr	r5, [pc, #124]	@ (8001208 <SysTick_Handler+0x88>)
  return (bool)(dlhp != dlhp->next);
 800118a:	462a      	mov	r2, r5
 800118c:	8bab      	ldrh	r3, [r5, #28]
 800118e:	f852 4f10 	ldr.w	r4, [r2, #16]!
 8001192:	3301      	adds	r3, #1
 8001194:	b29b      	uxth	r3, r3
  if (ch_dlist_notempty(&vtlp->dlist)) {
 8001196:	4294      	cmp	r4, r2
  vtlp->systime++;
 8001198:	83ab      	strh	r3, [r5, #28]
  if (ch_dlist_notempty(&vtlp->dlist)) {
 800119a:	d016      	beq.n	80011ca <SysTick_Handler+0x4a>
    /* The list is not empty, processing elements on top.*/
    --vtlp->dlist.next->delta;
 800119c:	68a3      	ldr	r3, [r4, #8]
 800119e:	3b01      	subs	r3, #1
 80011a0:	60a3      	str	r3, [r4, #8]
    while (vtlp->dlist.next->delta == (sysinterval_t)0) {
 80011a2:	b993      	cbnz	r3, 80011ca <SysTick_Handler+0x4a>
  dlp->prev->next = dlp->next;
 80011a4:	e9d4 2100 	ldrd	r2, r1, [r4]
 80011a8:	600a      	str	r2, [r1, #0]
  dlp->next->prev = dlp->prev;
 80011aa:	6051      	str	r1, [r2, #4]
      /* Triggered timer.*/
      vtp = (virtual_timer_t *)vtlp->dlist.next;

      /* Removing the element from the delta list, marking it as not armed.*/
      (void) ch_dlist_dequeue(&vtp->dlist);
      vtp->dlist.next = NULL;
 80011ac:	6023      	str	r3, [r4, #0]
 80011ae:	f383 8811 	msr	BASEPRI, r3

      chSysUnlockFromISR();
      vtp->func(vtp, vtp->par);
 80011b2:	4620      	mov	r0, r4
 80011b4:	e9d4 3103 	ldrd	r3, r1, [r4, #12]
 80011b8:	4798      	blx	r3
 80011ba:	f386 8811 	msr	BASEPRI, r6
      chSysLockFromISR();

      /* If a reload is defined the timer needs to be restarted.*/
      if (vtp->reload > (sysinterval_t)0) {
 80011be:	6963      	ldr	r3, [r4, #20]
 80011c0:	b953      	cbnz	r3, 80011d8 <SysTick_Handler+0x58>
  dlp = dlhp->next;
 80011c2:	692c      	ldr	r4, [r5, #16]
  while (likely(dlp->delta < delta)) {
 80011c4:	68a3      	ldr	r3, [r4, #8]
    while (vtlp->dlist.next->delta == (sysinterval_t)0) {
 80011c6:	2b00      	cmp	r3, #0
 80011c8:	d0ec      	beq.n	80011a4 <SysTick_Handler+0x24>
 80011ca:	2300      	movs	r3, #0
 80011cc:	f383 8811 	msr	BASEPRI, r3
  OSAL_IRQ_PROLOGUE();

  st_lld_serve_interrupt();

  OSAL_IRQ_EPILOGUE();
}
 80011d0:	e8bd 4070 	ldmia.w	sp!, {r4, r5, r6, lr}
  OSAL_IRQ_EPILOGUE();
 80011d4:	f7ff b8ec 	b.w	80003b0 <__port_irq_epilogue>
  dlp = dlhp->next;
 80011d8:	692a      	ldr	r2, [r5, #16]
  while (likely(dlp->delta < delta)) {
 80011da:	6891      	ldr	r1, [r2, #8]
 80011dc:	428b      	cmp	r3, r1
 80011de:	d904      	bls.n	80011ea <SysTick_Handler+0x6a>
    dlp = dlp->next;
 80011e0:	6812      	ldr	r2, [r2, #0]
    delta -= dlp->delta;
 80011e2:	1a5b      	subs	r3, r3, r1
  while (likely(dlp->delta < delta)) {
 80011e4:	6891      	ldr	r1, [r2, #8]
 80011e6:	4299      	cmp	r1, r3
 80011e8:	d3fa      	bcc.n	80011e0 <SysTick_Handler+0x60>
  dlhp->delta = (sysinterval_t)-1;
 80011ea:	f04f 30ff 	mov.w	r0, #4294967295
  dlp->prev       = dlp->next->prev;
 80011ee:	6851      	ldr	r1, [r2, #4]
  dlp->delta      = delta;
 80011f0:	60a3      	str	r3, [r4, #8]
  dlp->prev       = dlp->next->prev;
 80011f2:	6061      	str	r1, [r4, #4]
  dlp->next       = dlhp;
 80011f4:	6022      	str	r2, [r4, #0]
  dlp->prev->next = dlp;
 80011f6:	600c      	str	r4, [r1, #0]
  dlp->delta -= delta;
 80011f8:	6891      	ldr	r1, [r2, #8]
  dlhp->prev      = dlp;
 80011fa:	6054      	str	r4, [r2, #4]
  dlp->delta -= delta;
 80011fc:	1ac9      	subs	r1, r1, r3
 80011fe:	692c      	ldr	r4, [r5, #16]
 8001200:	6091      	str	r1, [r2, #8]
  dlhp->delta = (sysinterval_t)-1;
 8001202:	61a8      	str	r0, [r5, #24]
 8001204:	68a3      	ldr	r3, [r4, #8]
}
 8001206:	e7cc      	b.n	80011a2 <SysTick_Handler+0x22>
 8001208:	20001c38 	.word	0x20001c38
 800120c:	00000000 	.word	0x00000000

08001210 <__early_init>:
void stm32_clock_init(void) {

#if !STM32_NO_INIT
  /* HSI setup, it enforces the reset situation in order to handle possible
     problems with JTAG probes and re-initializations.*/
  RCC->CR |= RCC_CR_HSION;                  /* Make sure HSI is ON.         */
 8001210:	4a1b      	ldr	r2, [pc, #108]	@ (8001280 <__early_init+0x70>)
 8001212:	6813      	ldr	r3, [r2, #0]
 8001214:	f043 0301 	orr.w	r3, r3, #1
 8001218:	6013      	str	r3, [r2, #0]
  while (!(RCC->CR & RCC_CR_HSIRDY))
 800121a:	6813      	ldr	r3, [r2, #0]
 800121c:	0798      	lsls	r0, r3, #30
 800121e:	d5fc      	bpl.n	800121a <__early_init+0xa>
    ;                                       /* Wait until HSI is stable.    */
  RCC->CR &= RCC_CR_HSITRIM | RCC_CR_HSION; /* CR Reset value.              */
  RCC->CFGR = 0;                            /* CFGR reset value.            */
 8001220:	2000      	movs	r0, #0
  RCC->CR &= RCC_CR_HSITRIM | RCC_CR_HSION; /* CR Reset value.              */
 8001222:	6813      	ldr	r3, [r2, #0]
  while ((RCC->CFGR & RCC_CFGR_SWS) != RCC_CFGR_SWS_HSI)
 8001224:	4916      	ldr	r1, [pc, #88]	@ (8001280 <__early_init+0x70>)
  RCC->CR &= RCC_CR_HSITRIM | RCC_CR_HSION; /* CR Reset value.              */
 8001226:	f003 03f9 	and.w	r3, r3, #249	@ 0xf9
 800122a:	6013      	str	r3, [r2, #0]
  RCC->CFGR = 0;                            /* CFGR reset value.            */
 800122c:	6050      	str	r0, [r2, #4]
  while ((RCC->CFGR & RCC_CFGR_SWS) != RCC_CFGR_SWS_HSI)
 800122e:	684b      	ldr	r3, [r1, #4]
 8001230:	f013 0f0c 	tst.w	r3, #12
 8001234:	d1fb      	bne.n	800122e <__early_init+0x1e>
#if defined(STM32_HSE_BYPASS)
  /* HSE Bypass.*/
  RCC->CR |= RCC_CR_HSEON | RCC_CR_HSEBYP;
#endif
  /* HSE activation.*/
  RCC->CR |= RCC_CR_HSEON;
 8001236:	680b      	ldr	r3, [r1, #0]
  while (!(RCC->CR & RCC_CR_HSERDY))
 8001238:	4a11      	ldr	r2, [pc, #68]	@ (8001280 <__early_init+0x70>)
  RCC->CR |= RCC_CR_HSEON;
 800123a:	f443 3380 	orr.w	r3, r3, #65536	@ 0x10000
 800123e:	600b      	str	r3, [r1, #0]
  while (!(RCC->CR & RCC_CR_HSERDY))
 8001240:	6813      	ldr	r3, [r2, #0]
 8001242:	0399      	lsls	r1, r3, #14
 8001244:	d5fc      	bpl.n	8001240 <__early_init+0x30>
    ;                                       /* Waits until LSI is stable.   */
#endif

#if STM32_ACTIVATE_PLL
  /* PLL activation.*/
  RCC->CFGR |= STM32_PLLMUL | STM32_PLLXTPRE | STM32_PLLSRC;
 8001246:	6853      	ldr	r3, [r2, #4]
  RCC->CR   |= RCC_CR_PLLON;
  while (!(RCC->CR & RCC_CR_PLLRDY))
 8001248:	490d      	ldr	r1, [pc, #52]	@ (8001280 <__early_init+0x70>)
  RCC->CFGR |= STM32_PLLMUL | STM32_PLLXTPRE | STM32_PLLSRC;
 800124a:	f443 13e8 	orr.w	r3, r3, #1900544	@ 0x1d0000
 800124e:	6053      	str	r3, [r2, #4]
  RCC->CR   |= RCC_CR_PLLON;
 8001250:	6813      	ldr	r3, [r2, #0]
 8001252:	f043 7380 	orr.w	r3, r3, #16777216	@ 0x1000000
 8001256:	6013      	str	r3, [r2, #0]
  while (!(RCC->CR & RCC_CR_PLLRDY))
 8001258:	680b      	ldr	r3, [r1, #0]
 800125a:	019b      	lsls	r3, r3, #6
 800125c:	d5fc      	bpl.n	8001258 <__early_init+0x48>
              STM32_PLLSRC | STM32_ADCPRE | STM32_PPRE2  | STM32_PPRE1    |
              STM32_HPRE;
#endif

  /* Flash setup and final clock selection.   */
  FLASH->ACR = STM32_FLASHBITS;
 800125e:	2012      	movs	r0, #18
  RCC->CFGR = STM32_MCOSEL | STM32_USBPRE | STM32_PLLMUL | STM32_PLLXTPRE |
 8001260:	4a08      	ldr	r2, [pc, #32]	@ (8001284 <__early_init+0x74>)
  FLASH->ACR = STM32_FLASHBITS;
 8001262:	4b09      	ldr	r3, [pc, #36]	@ (8001288 <__early_init+0x78>)
  RCC->CFGR = STM32_MCOSEL | STM32_USBPRE | STM32_PLLMUL | STM32_PLLXTPRE |
 8001264:	604a      	str	r2, [r1, #4]
  FLASH->ACR = STM32_FLASHBITS;
 8001266:	6018      	str	r0, [r3, #0]

  /* Switching to the configured clock source if it is different from HSI.*/
#if (STM32_SW != STM32_SW_HSI)
  /* Switches clock source.*/
  RCC->CFGR |= STM32_SW;
 8001268:	684b      	ldr	r3, [r1, #4]
  while ((RCC->CFGR & RCC_CFGR_SWS) != (STM32_SW << 2))
 800126a:	4a05      	ldr	r2, [pc, #20]	@ (8001280 <__early_init+0x70>)
  RCC->CFGR |= STM32_SW;
 800126c:	f043 0302 	orr.w	r3, r3, #2
 8001270:	604b      	str	r3, [r1, #4]
  while ((RCC->CFGR & RCC_CFGR_SWS) != (STM32_SW << 2))
 8001272:	6853      	ldr	r3, [r2, #4]
 8001274:	f003 030c 	and.w	r3, r3, #12
 8001278:	2b08      	cmp	r3, #8
 800127a:	d1fa      	bne.n	8001272 <__early_init+0x62>
 * any other initialization.
 */
void __early_init(void) {

  stm32_clock_init();
}
 800127c:	4770      	bx	lr
 800127e:	bf00      	nop
 8001280:	40021000 	.word	0x40021000
 8001284:	001d6400 	.word	0x001d6400
 8001288:	40022000 	.word	0x40022000
 800128c:	00000000 	.word	0x00000000

08001290 <chSchDoPreemption>:
static void __sch_reschedule_ahead(void) {
 8001290:	b410      	push	{r4}
  ntp->state = CH_STATE_CURRENT;
 8001292:	2401      	movs	r4, #1
  tp->state = CH_STATE_READY;
 8001294:	f04f 0c00 	mov.w	ip, #0
  thread_t *otp = __instance_get_currthread(oip);
 8001298:	4b0c      	ldr	r3, [pc, #48]	@ (80012cc <chSchDoPreemption+0x3c>)
  ch_priority_queue_t *p = pqp->next;
 800129a:	6818      	ldr	r0, [r3, #0]
 800129c:	68d9      	ldr	r1, [r3, #12]
  pqp->next       = p->next;
 800129e:	6802      	ldr	r2, [r0, #0]
  pqp->next->prev = pqp;
 80012a0:	6053      	str	r3, [r2, #4]
  ntp->state = CH_STATE_CURRENT;
 80012a2:	f880 4024 	strb.w	r4, [r0, #36]	@ 0x24
  pqp->next       = p->next;
 80012a6:	601a      	str	r2, [r3, #0]
  __instance_set_currthread(oip, ntp);
 80012a8:	60d8      	str	r0, [r3, #12]
  } while (unlikely(pqp->prio > p->prio));
 80012aa:	688c      	ldr	r4, [r1, #8]
  return threadref(ch_pqueue_insert_ahead(&tp->owner->rlist.pqueue,
 80012ac:	698b      	ldr	r3, [r1, #24]
  tp->state = CH_STATE_READY;
 80012ae:	f881 c024 	strb.w	ip, [r1, #36]	@ 0x24
    pqp = pqp->next;
 80012b2:	681b      	ldr	r3, [r3, #0]
  } while (unlikely(pqp->prio > p->prio));
 80012b4:	689a      	ldr	r2, [r3, #8]
 80012b6:	42a2      	cmp	r2, r4
 80012b8:	d8fb      	bhi.n	80012b2 <chSchDoPreemption+0x22>
  p->prev       = pqp->prev;
 80012ba:	685a      	ldr	r2, [r3, #4]
}
 80012bc:	bc10      	pop	{r4}
 80012be:	e9c1 3200 	strd	r3, r2, [r1]
  p->prev->next = p;
 80012c2:	6011      	str	r1, [r2, #0]
  pqp->prev     = p;
 80012c4:	6059      	str	r1, [r3, #4]
  chSysSwitch(ntp, otp);
 80012c6:	f7fe bfbb 	b.w	8000240 <__port_switch>
 80012ca:	bf00      	nop
 80012cc:	20001c38 	.word	0x20001c38

080012d0 <eventHandle>:
static THD_FUNCTION(eventHandle, arg) {
 80012d0:	e92d 4880 	stmdb	sp!, {r7, fp, lr}
 80012d4:	2530      	movs	r5, #48	@ 0x30
 80012d6:	b089      	sub	sp, #36	@ 0x24
 80012d8:	f385 8811 	msr	BASEPRI, r5
  elp->wflags   = wflags;
 80012dc:	f04f 32ff 	mov.w	r2, #4294967295
  elp->events   = events;
 80012e0:	2001      	movs	r0, #1
 80012e2:	2100      	movs	r1, #0
  elp->next     = esp->next;
 80012e4:	4b9c      	ldr	r3, [pc, #624]	@ (8001558 <eventHandle+0x288>)
  elp->wflags   = wflags;
 80012e6:	9206      	str	r2, [sp, #24]
  elp->next     = esp->next;
 80012e8:	681a      	ldr	r2, [r3, #0]
  return __sch_get_currthread();
 80012ea:	4c9c      	ldr	r4, [pc, #624]	@ (800155c <eventHandle+0x28c>)
 80012ec:	9202      	str	r2, [sp, #8]
  esp->next     = elp;
 80012ee:	aa02      	add	r2, sp, #8
 80012f0:	601a      	str	r2, [r3, #0]
 80012f2:	68e3      	ldr	r3, [r4, #12]
 80012f4:	f04f 0900 	mov.w	r9, #0
  elp->events   = events;
 80012f8:	e9cd 0104 	strd	r0, r1, [sp, #16]
  elp->listener = currtp;
 80012fc:	9303      	str	r3, [sp, #12]
 80012fe:	f389 8811 	msr	BASEPRI, r9
 8001302:	f8df 825c 	ldr.w	r8, [pc, #604]	@ 8001560 <eventHandle+0x290>
  currtp->epending &= ~m;
 8001306:	464e      	mov	r6, r9
 8001308:	f8df b258 	ldr.w	fp, [pc, #600]	@ 8001564 <eventHandle+0x294>
 800130c:	f8df a258 	ldr.w	sl, [pc, #600]	@ 8001568 <eventHandle+0x298>
 8001310:	4f96      	ldr	r7, [pc, #600]	@ (800156c <eventHandle+0x29c>)
}
 8001312:	e017      	b.n	8001344 <eventHandle+0x74>
            if(current_state == IDLE) {
 8001314:	f898 3000 	ldrb.w	r3, [r8]
 8001318:	b923      	cbnz	r3, 8001324 <eventHandle+0x54>
                previous_state = IDLE;
 800131a:	f88b 3000 	strb.w	r3, [fp]
                current_state = SOAK_WATER_IN;
 800131e:	2301      	movs	r3, #1
 8001320:	f888 3000 	strb.w	r3, [r8]
 8001324:	f385 8811 	msr	BASEPRI, r5
  chEvtBroadcastFlagsI(esp, flags);
 8001328:	f44f 6080 	mov.w	r0, #1024	@ 0x400
 800132c:	f7ff f9c0 	bl	80006b0 <chEvtBroadcastFlagsI.constprop.0>
  if (likely(firstprio(&oip->rlist.pqueue) > tp->hdr.pqueue.prio)) {
 8001330:	6823      	ldr	r3, [r4, #0]
 8001332:	689a      	ldr	r2, [r3, #8]
 8001334:	68e3      	ldr	r3, [r4, #12]
 8001336:	689b      	ldr	r3, [r3, #8]
 8001338:	429a      	cmp	r2, r3
 800133a:	d901      	bls.n	8001340 <eventHandle+0x70>
    __sch_reschedule_ahead();
 800133c:	f7ff ffa8 	bl	8001290 <chSchDoPreemption>
 8001340:	f386 8811 	msr	BASEPRI, r6
 8001344:	68e2      	ldr	r2, [r4, #12]
 8001346:	f385 8811 	msr	BASEPRI, r5
  m = currtp->epending & events;
 800134a:	6b93      	ldr	r3, [r2, #56]	@ 0x38
  if (m == (eventmask_t)0) {
 800134c:	2b00      	cmp	r3, #0
 800134e:	f000 8082 	beq.w	8001456 <eventHandle+0x186>
  currtp->epending &= ~m;
 8001352:	f8c2 9038 	str.w	r9, [r2, #56]	@ 0x38
 8001356:	f386 8811 	msr	BASEPRI, r6
        if(events & START_EVENT) {
 800135a:	f013 0201 	ands.w	r2, r3, #1
 800135e:	d1d9      	bne.n	8001314 <eventHandle+0x44>
        else if(events & HIGH_WATERMARK_EVENT) {
 8001360:	f013 0102 	ands.w	r1, r3, #2
 8001364:	f000 808d 	beq.w	8001482 <eventHandle+0x1b2>
            if(current_state == SOAK_WATER_IN) {
 8001368:	f898 3000 	ldrb.w	r3, [r8]
 800136c:	2b01      	cmp	r3, #1
 800136e:	f000 8291 	beq.w	8001894 <eventHandle+0x5c4>
            else if(current_state == RINSE_WATER_IN) {
 8001372:	2b07      	cmp	r3, #7
 8001374:	d1d6      	bne.n	8001324 <eventHandle+0x54>
                previous_state = RINSE_WATER_IN;
 8001376:	f88b 3000 	strb.w	r3, [fp]
                current_state = RINSE_TURN_CLKWISE;
 800137a:	2308      	movs	r3, #8
 800137c:	f888 3000 	strb.w	r3, [r8]
 8001380:	f385 8811 	msr	BASEPRI, r5
  return (bool)(vtp->dlist.next != NULL);
 8001384:	f8df c1e8 	ldr.w	ip, [pc, #488]	@ 8001570 <eventHandle+0x2a0>
 8001388:	f8dc 3000 	ldr.w	r3, [ip]
  if (chVTIsArmedI(vtp)) {
 800138c:	b16b      	cbz	r3, 80013aa <eventHandle+0xda>
  vtlp->dlist.delta = (sysinterval_t)-1;
 800138e:	f04f 30ff 	mov.w	r0, #4294967295
  vtp->dlist.next->delta += vtp->dlist.delta;
 8001392:	6899      	ldr	r1, [r3, #8]
 8001394:	f8dc e008 	ldr.w	lr, [ip, #8]
 8001398:	4471      	add	r1, lr
 800139a:	6099      	str	r1, [r3, #8]
  dlp->prev->next = dlp->next;
 800139c:	f8dc 1004 	ldr.w	r1, [ip, #4]
 80013a0:	600b      	str	r3, [r1, #0]
  dlp->next->prev = dlp->prev;
 80013a2:	6059      	str	r1, [r3, #4]
  vtp->dlist.next = NULL;
 80013a4:	f8cc 2000 	str.w	r2, [ip]
  vtlp->dlist.delta = (sysinterval_t)-1;
 80013a8:	61a0      	str	r0, [r4, #24]
  vtp->par     = par;
 80013aa:	4b71      	ldr	r3, [pc, #452]	@ (8001570 <eventHandle+0x2a0>)
  vtp->func    = vtfunc;
 80013ac:	4a71      	ldr	r2, [pc, #452]	@ (8001574 <eventHandle+0x2a4>)
  vtp->par     = par;
 80013ae:	f8c3 9010 	str.w	r9, [r3, #16]
  vtp->func    = vtfunc;
 80013b2:	60da      	str	r2, [r3, #12]
  vtp->reload  = (sysinterval_t)0;
 80013b4:	f8c3 9014 	str.w	r9, [r3, #20]
  dlp = dlhp->next;
 80013b8:	6923      	ldr	r3, [r4, #16]
  while (likely(dlp->delta < delta)) {
 80013ba:	4a6f      	ldr	r2, [pc, #444]	@ (8001578 <eventHandle+0x2a8>)
 80013bc:	6899      	ldr	r1, [r3, #8]
 80013be:	4291      	cmp	r1, r2
 80013c0:	f200 83b3 	bhi.w	8001b2a <eventHandle+0x85a>
 80013c4:	3201      	adds	r2, #1
    dlp = dlp->next;
 80013c6:	681b      	ldr	r3, [r3, #0]
    delta -= dlp->delta;
 80013c8:	1a52      	subs	r2, r2, r1
  while (likely(dlp->delta < delta)) {
 80013ca:	6899      	ldr	r1, [r3, #8]
 80013cc:	4291      	cmp	r1, r2
 80013ce:	d3fa      	bcc.n	80013c6 <eventHandle+0xf6>
  dlhp->delta = (sysinterval_t)-1;
 80013d0:	f04f 30ff 	mov.w	r0, #4294967295
  dlp->delta      = delta;
 80013d4:	f8df c198 	ldr.w	ip, [pc, #408]	@ 8001570 <eventHandle+0x2a0>
 80013d8:	f8cc 2008 	str.w	r2, [ip, #8]
  dlp->delta -= delta;
 80013dc:	6899      	ldr	r1, [r3, #8]
  dlp->next       = dlhp;
 80013de:	f8cc 3000 	str.w	r3, [ip]
  dlp->delta -= delta;
 80013e2:	1a89      	subs	r1, r1, r2
  dlp->prev       = dlp->next->prev;
 80013e4:	685a      	ldr	r2, [r3, #4]
 80013e6:	f8cc 2004 	str.w	r2, [ip, #4]
  dlp->prev->next = dlp;
 80013ea:	f8c2 c000 	str.w	ip, [r2]
  dlhp->prev      = dlp;
 80013ee:	e9c3 c101 	strd	ip, r1, [r3, #4]
  dlhp->delta = (sysinterval_t)-1;
 80013f2:	61a0      	str	r0, [r4, #24]
 80013f4:	f386 8811 	msr	BASEPRI, r6
 80013f8:	f385 8811 	msr	BASEPRI, r5
  return (bool)(vtp->dlist.next != NULL);
 80013fc:	683b      	ldr	r3, [r7, #0]
  if (chVTIsArmedI(vtp)) {
 80013fe:	b14b      	cbz	r3, 8001414 <eventHandle+0x144>
  vtp->dlist.next->delta += vtp->dlist.delta;
 8001400:	689a      	ldr	r2, [r3, #8]
 8001402:	68b9      	ldr	r1, [r7, #8]
 8001404:	440a      	add	r2, r1
 8001406:	609a      	str	r2, [r3, #8]
  dlp->prev->next = dlp->next;
 8001408:	687a      	ldr	r2, [r7, #4]
 800140a:	6013      	str	r3, [r2, #0]
  dlp->next->prev = dlp->prev;
 800140c:	605a      	str	r2, [r3, #4]
  vtp->dlist.next = NULL;
 800140e:	f8c7 9000 	str.w	r9, [r7]
  vtlp->dlist.delta = (sysinterval_t)-1;
 8001412:	61a0      	str	r0, [r4, #24]
  vtp->func    = vtfunc;
 8001414:	4b59      	ldr	r3, [pc, #356]	@ (800157c <eventHandle+0x2ac>)
  while (likely(dlp->delta < delta)) {
 8001416:	f44f 727a 	mov.w	r2, #1000	@ 0x3e8
 800141a:	60fb      	str	r3, [r7, #12]
  dlp = dlhp->next;
 800141c:	6923      	ldr	r3, [r4, #16]
  vtp->par     = par;
 800141e:	f8c7 9010 	str.w	r9, [r7, #16]
  while (likely(dlp->delta < delta)) {
 8001422:	6899      	ldr	r1, [r3, #8]
  vtp->reload  = (sysinterval_t)0;
 8001424:	f8c7 9014 	str.w	r9, [r7, #20]
 8001428:	f5b1 7f7a 	cmp.w	r1, #1000	@ 0x3e8
 800142c:	d204      	bcs.n	8001438 <eventHandle+0x168>
    dlp = dlp->next;
 800142e:	681b      	ldr	r3, [r3, #0]
    delta -= dlp->delta;
 8001430:	1a52      	subs	r2, r2, r1
  while (likely(dlp->delta < delta)) {
 8001432:	6899      	ldr	r1, [r3, #8]
 8001434:	4291      	cmp	r1, r2
 8001436:	d3fa      	bcc.n	800142e <eventHandle+0x15e>
  dlhp->delta = (sysinterval_t)-1;
 8001438:	f04f 30ff 	mov.w	r0, #4294967295
  dlp->delta      = delta;
 800143c:	60ba      	str	r2, [r7, #8]
  dlp->delta -= delta;
 800143e:	6899      	ldr	r1, [r3, #8]
  dlp->next       = dlhp;
 8001440:	603b      	str	r3, [r7, #0]
  dlp->delta -= delta;
 8001442:	1a89      	subs	r1, r1, r2
  dlp->prev       = dlp->next->prev;
 8001444:	685a      	ldr	r2, [r3, #4]
 8001446:	607a      	str	r2, [r7, #4]
  dlp->prev->next = dlp;
 8001448:	6017      	str	r7, [r2, #0]
  dlhp->prev      = dlp;
 800144a:	e9c3 7101 	strd	r7, r1, [r3, #4]
  dlhp->delta = (sysinterval_t)-1;
 800144e:	61a0      	str	r0, [r4, #24]
 8001450:	f386 8811 	msr	BASEPRI, r6
                           vtfunc_t vtfunc, void *par) {

  chSysLock();
  chVTSetI(vtp, delay, vtfunc, par);
  chSysUnlock();
}
 8001454:	e766      	b.n	8001324 <eventHandle+0x54>
    currtp->u.ewmask = events;
 8001456:	f04f 33ff 	mov.w	r3, #4294967295
 800145a:	6293      	str	r3, [r2, #40]	@ 0x28
  otp->state = newstate;
 800145c:	230a      	movs	r3, #10
  ntp->state = CH_STATE_CURRENT;
 800145e:	f04f 0c01 	mov.w	ip, #1
  thread_t *otp = __instance_get_currthread(oip);
 8001462:	68e1      	ldr	r1, [r4, #12]
  ch_priority_queue_t *p = pqp->next;
 8001464:	6820      	ldr	r0, [r4, #0]
  otp->state = newstate;
 8001466:	f881 3024 	strb.w	r3, [r1, #36]	@ 0x24
  pqp->next       = p->next;
 800146a:	6803      	ldr	r3, [r0, #0]
 800146c:	9201      	str	r2, [sp, #4]
  pqp->next->prev = pqp;
 800146e:	605c      	str	r4, [r3, #4]
  ntp->state = CH_STATE_CURRENT;
 8001470:	f880 c024 	strb.w	ip, [r0, #36]	@ 0x24
  pqp->next       = p->next;
 8001474:	6023      	str	r3, [r4, #0]
  __instance_set_currthread(oip, ntp);
 8001476:	60e0      	str	r0, [r4, #12]
  chSysSwitch(ntp, otp);
 8001478:	f7fe fee2 	bl	8000240 <__port_switch>
    m = currtp->epending & events;
 800147c:	9a01      	ldr	r2, [sp, #4]
 800147e:	6b93      	ldr	r3, [r2, #56]	@ 0x38
 8001480:	e767      	b.n	8001352 <eventHandle+0x82>
        else if(events & LOW_WATERMARK_EVENT) {
 8001482:	0758      	lsls	r0, r3, #29
 8001484:	d54a      	bpl.n	800151c <eventHandle+0x24c>
            if(current_state == WASH_WATER_OUT){
 8001486:	f898 3000 	ldrb.w	r3, [r8]
 800148a:	2b06      	cmp	r3, #6
 800148c:	f000 8262 	beq.w	8001954 <eventHandle+0x684>
            else if(current_state == RINSE_WATER_OUT){
 8001490:	2b0a      	cmp	r3, #10
 8001492:	f47f af47 	bne.w	8001324 <eventHandle+0x54>
                previous_state = RINSE_WATER_OUT;
 8001496:	f88b 3000 	strb.w	r3, [fp]
                current_state = CENTRIFUGE;
 800149a:	230b      	movs	r3, #11
 800149c:	f888 3000 	strb.w	r3, [r8]
 80014a0:	f385 8811 	msr	BASEPRI, r5
  return (bool)(vtp->dlist.next != NULL);
 80014a4:	f8df c0d8 	ldr.w	ip, [pc, #216]	@ 8001580 <eventHandle+0x2b0>
 80014a8:	f8dc 3000 	ldr.w	r3, [ip]
  if (chVTIsArmedI(vtp)) {
 80014ac:	b16b      	cbz	r3, 80014ca <eventHandle+0x1fa>
  vtlp->dlist.delta = (sysinterval_t)-1;
 80014ae:	f04f 30ff 	mov.w	r0, #4294967295
  vtp->dlist.next->delta += vtp->dlist.delta;
 80014b2:	689a      	ldr	r2, [r3, #8]
 80014b4:	f8dc e008 	ldr.w	lr, [ip, #8]
 80014b8:	4472      	add	r2, lr
 80014ba:	609a      	str	r2, [r3, #8]
  dlp->prev->next = dlp->next;
 80014bc:	f8dc 2004 	ldr.w	r2, [ip, #4]
 80014c0:	6013      	str	r3, [r2, #0]
  dlp->next->prev = dlp->prev;
 80014c2:	605a      	str	r2, [r3, #4]
  vtp->dlist.next = NULL;
 80014c4:	f8cc 1000 	str.w	r1, [ip]
  vtlp->dlist.delta = (sysinterval_t)-1;
 80014c8:	61a0      	str	r0, [r4, #24]
  vtp->par     = par;
 80014ca:	4b2d      	ldr	r3, [pc, #180]	@ (8001580 <eventHandle+0x2b0>)
  vtp->func    = vtfunc;
 80014cc:	4a2d      	ldr	r2, [pc, #180]	@ (8001584 <eventHandle+0x2b4>)
  vtp->par     = par;
 80014ce:	f8c3 9010 	str.w	r9, [r3, #16]
  vtp->func    = vtfunc;
 80014d2:	60da      	str	r2, [r3, #12]
  while (likely(dlp->delta < delta)) {
 80014d4:	f649 423f 	movw	r2, #39999	@ 0x9c3f
  vtp->reload  = (sysinterval_t)0;
 80014d8:	f8c3 9014 	str.w	r9, [r3, #20]
  dlp = dlhp->next;
 80014dc:	6923      	ldr	r3, [r4, #16]
  while (likely(dlp->delta < delta)) {
 80014de:	6899      	ldr	r1, [r3, #8]
 80014e0:	4291      	cmp	r1, r2
 80014e2:	f649 4240 	movw	r2, #40000	@ 0x9c40
 80014e6:	d804      	bhi.n	80014f2 <eventHandle+0x222>
    dlp = dlp->next;
 80014e8:	681b      	ldr	r3, [r3, #0]
    delta -= dlp->delta;
 80014ea:	1a52      	subs	r2, r2, r1
  while (likely(dlp->delta < delta)) {
 80014ec:	6899      	ldr	r1, [r3, #8]
 80014ee:	4291      	cmp	r1, r2
 80014f0:	d3fa      	bcc.n	80014e8 <eventHandle+0x218>
  dlhp->delta = (sysinterval_t)-1;
 80014f2:	f04f 30ff 	mov.w	r0, #4294967295
  dlp->delta      = delta;
 80014f6:	f8df c088 	ldr.w	ip, [pc, #136]	@ 8001580 <eventHandle+0x2b0>
 80014fa:	f8cc 2008 	str.w	r2, [ip, #8]
  dlp->delta -= delta;
 80014fe:	6899      	ldr	r1, [r3, #8]
  dlp->next       = dlhp;
 8001500:	f8cc 3000 	str.w	r3, [ip]
  dlp->delta -= delta;
 8001504:	1a89      	subs	r1, r1, r2
  dlp->prev       = dlp->next->prev;
 8001506:	685a      	ldr	r2, [r3, #4]
 8001508:	f8cc 2004 	str.w	r2, [ip, #4]
  dlp->prev->next = dlp;
 800150c:	f8c2 c000 	str.w	ip, [r2]
  dlhp->prev      = dlp;
 8001510:	e9c3 c101 	strd	ip, r1, [r3, #4]
  dlhp->delta = (sysinterval_t)-1;
 8001514:	61a0      	str	r0, [r4, #24]
 8001516:	f386 8811 	msr	BASEPRI, r6
}
 800151a:	e703      	b.n	8001324 <eventHandle+0x54>
        else if(events & TIMEOUT_MOTOR_EVENT) {
 800151c:	f013 0220 	ands.w	r2, r3, #32
 8001520:	f000 8142 	beq.w	80017a8 <eventHandle+0x4d8>
            if(current_state == SOAK_TURN_CLKWISE) {
 8001524:	f898 3000 	ldrb.w	r3, [r8]
 8001528:	3b02      	subs	r3, #2
 800152a:	2b07      	cmp	r3, #7
 800152c:	f63f aefa 	bhi.w	8001324 <eventHandle+0x54>
 8001530:	a201      	add	r2, pc, #4	@ (adr r2, 8001538 <eventHandle+0x268>)
 8001532:	f852 f023 	ldr.w	pc, [r2, r3, lsl #2]
 8001536:	bf00      	nop
 8001538:	0800164f 	.word	0x0800164f
 800153c:	0800174f 	.word	0x0800174f
 8001540:	080016a3 	.word	0x080016a3
 8001544:	080016f9 	.word	0x080016f9
 8001548:	08001325 	.word	0x08001325
 800154c:	08001325 	.word	0x08001325
 8001550:	080015fb 	.word	0x080015fb
 8001554:	08001589 	.word	0x08001589
 8001558:	20001c1c 	.word	0x20001c1c
 800155c:	20001c38 	.word	0x20001c38
 8001560:	20001b79 	.word	0x20001b79
 8001564:	20001b78 	.word	0x20001b78
 8001568:	20001bdc 	.word	0x20001bdc
 800156c:	20001bfc 	.word	0x20001bfc
 8001570:	20001b9c 	.word	0x20001b9c
 8001574:	08000791 	.word	0x08000791
 8001578:	0001d4bf 	.word	0x0001d4bf
 800157c:	08000731 	.word	0x08000731
 8001580:	20001b7c 	.word	0x20001b7c
 8001584:	080007b1 	.word	0x080007b1
                previous_state = RINSE_TURN_ANTI_CLKWISE;
 8001588:	2309      	movs	r3, #9
 800158a:	f88b 3000 	strb.w	r3, [fp]
                current_state = RINSE_TURN_CLKWISE;
 800158e:	2308      	movs	r3, #8
 8001590:	f888 3000 	strb.w	r3, [r8]
 8001594:	2330      	movs	r3, #48	@ 0x30
 8001596:	f383 8811 	msr	BASEPRI, r3
  return (bool)(vtp->dlist.next != NULL);
 800159a:	683b      	ldr	r3, [r7, #0]
  if (chVTIsArmedI(vtp)) {
 800159c:	b163      	cbz	r3, 80015b8 <eventHandle+0x2e8>
  vtp->dlist.next = NULL;
 800159e:	2000      	movs	r0, #0
  vtlp->dlist.delta = (sysinterval_t)-1;
 80015a0:	f04f 31ff 	mov.w	r1, #4294967295
  vtp->dlist.next->delta += vtp->dlist.delta;
 80015a4:	689a      	ldr	r2, [r3, #8]
 80015a6:	f8d7 c008 	ldr.w	ip, [r7, #8]
 80015aa:	4462      	add	r2, ip
 80015ac:	609a      	str	r2, [r3, #8]
  dlp->prev->next = dlp->next;
 80015ae:	687a      	ldr	r2, [r7, #4]
 80015b0:	6013      	str	r3, [r2, #0]
  dlp->next->prev = dlp->prev;
 80015b2:	605a      	str	r2, [r3, #4]
  vtp->dlist.next = NULL;
 80015b4:	6038      	str	r0, [r7, #0]
  vtlp->dlist.delta = (sysinterval_t)-1;
 80015b6:	61a1      	str	r1, [r4, #24]
  vtp->par     = par;
 80015b8:	2200      	movs	r2, #0
  vtp->func    = vtfunc;
 80015ba:	4b7a      	ldr	r3, [pc, #488]	@ (80017a4 <eventHandle+0x4d4>)
 80015bc:	60fb      	str	r3, [r7, #12]
  dlp = dlhp->next;
 80015be:	6923      	ldr	r3, [r4, #16]
  while (likely(dlp->delta < delta)) {
 80015c0:	6899      	ldr	r1, [r3, #8]
  vtp->reload  = (sysinterval_t)0;
 80015c2:	e9c7 2204 	strd	r2, r2, [r7, #16]
 80015c6:	f5b1 7f7a 	cmp.w	r1, #1000	@ 0x3e8
 80015ca:	f44f 727a 	mov.w	r2, #1000	@ 0x3e8
 80015ce:	d204      	bcs.n	80015da <eventHandle+0x30a>
    dlp = dlp->next;
 80015d0:	681b      	ldr	r3, [r3, #0]
    delta -= dlp->delta;
 80015d2:	1a52      	subs	r2, r2, r1
  while (likely(dlp->delta < delta)) {
 80015d4:	6899      	ldr	r1, [r3, #8]
 80015d6:	4291      	cmp	r1, r2
 80015d8:	d3fa      	bcc.n	80015d0 <eventHandle+0x300>
  dlhp->delta = (sysinterval_t)-1;
 80015da:	f04f 30ff 	mov.w	r0, #4294967295
  dlp->delta      = delta;
 80015de:	60ba      	str	r2, [r7, #8]
  dlp->delta -= delta;
 80015e0:	6899      	ldr	r1, [r3, #8]
  dlp->next       = dlhp;
 80015e2:	603b      	str	r3, [r7, #0]
  dlp->delta -= delta;
 80015e4:	1a89      	subs	r1, r1, r2
  dlp->prev       = dlp->next->prev;
 80015e6:	685a      	ldr	r2, [r3, #4]
 80015e8:	607a      	str	r2, [r7, #4]
  dlp->prev->next = dlp;
 80015ea:	6017      	str	r7, [r2, #0]
  dlhp->prev      = dlp;
 80015ec:	e9c3 7101 	strd	r7, r1, [r3, #4]
 80015f0:	2300      	movs	r3, #0
  dlhp->delta = (sysinterval_t)-1;
 80015f2:	61a0      	str	r0, [r4, #24]
 80015f4:	f383 8811 	msr	BASEPRI, r3
}
 80015f8:	e694      	b.n	8001324 <eventHandle+0x54>
                previous_state = RINSE_TURN_CLKWISE;
 80015fa:	2308      	movs	r3, #8
 80015fc:	f88b 3000 	strb.w	r3, [fp]
                current_state = RINSE_TURN_ANTI_CLKWISE;
 8001600:	2309      	movs	r3, #9
 8001602:	f888 3000 	strb.w	r3, [r8]
 8001606:	2330      	movs	r3, #48	@ 0x30
 8001608:	f383 8811 	msr	BASEPRI, r3
  return (bool)(vtp->dlist.next != NULL);
 800160c:	683b      	ldr	r3, [r7, #0]
  if (chVTIsArmedI(vtp)) {
 800160e:	b163      	cbz	r3, 800162a <eventHandle+0x35a>
  vtp->dlist.next = NULL;
 8001610:	2000      	movs	r0, #0
  vtlp->dlist.delta = (sysinterval_t)-1;
 8001612:	f04f 31ff 	mov.w	r1, #4294967295
  vtp->dlist.next->delta += vtp->dlist.delta;
 8001616:	689a      	ldr	r2, [r3, #8]
 8001618:	f8d7 c008 	ldr.w	ip, [r7, #8]
 800161c:	4462      	add	r2, ip
 800161e:	609a      	str	r2, [r3, #8]
  dlp->prev->next = dlp->next;
 8001620:	687a      	ldr	r2, [r7, #4]
 8001622:	6013      	str	r3, [r2, #0]
  dlp->next->prev = dlp->prev;
 8001624:	605a      	str	r2, [r3, #4]
  vtp->dlist.next = NULL;
 8001626:	6038      	str	r0, [r7, #0]
  vtlp->dlist.delta = (sysinterval_t)-1;
 8001628:	61a1      	str	r1, [r4, #24]
  vtp->par     = par;
 800162a:	2200      	movs	r2, #0
  vtp->func    = vtfunc;
 800162c:	4b5d      	ldr	r3, [pc, #372]	@ (80017a4 <eventHandle+0x4d4>)
 800162e:	60fb      	str	r3, [r7, #12]
  dlp = dlhp->next;
 8001630:	6923      	ldr	r3, [r4, #16]
  while (likely(dlp->delta < delta)) {
 8001632:	6899      	ldr	r1, [r3, #8]
  vtp->reload  = (sysinterval_t)0;
 8001634:	e9c7 2204 	strd	r2, r2, [r7, #16]
 8001638:	f5b1 7f7a 	cmp.w	r1, #1000	@ 0x3e8
 800163c:	f44f 727a 	mov.w	r2, #1000	@ 0x3e8
 8001640:	d2cb      	bcs.n	80015da <eventHandle+0x30a>
    dlp = dlp->next;
 8001642:	681b      	ldr	r3, [r3, #0]
    delta -= dlp->delta;
 8001644:	1a52      	subs	r2, r2, r1
  while (likely(dlp->delta < delta)) {
 8001646:	6899      	ldr	r1, [r3, #8]
 8001648:	4291      	cmp	r1, r2
 800164a:	d3fa      	bcc.n	8001642 <eventHandle+0x372>
 800164c:	e7c5      	b.n	80015da <eventHandle+0x30a>
                previous_state = SOAK_TURN_CLKWISE;
 800164e:	2302      	movs	r3, #2
 8001650:	f88b 3000 	strb.w	r3, [fp]
                current_state = SOAK_TURN_ANTI_CLKWISE;
 8001654:	2303      	movs	r3, #3
 8001656:	f888 3000 	strb.w	r3, [r8]
 800165a:	2330      	movs	r3, #48	@ 0x30
 800165c:	f383 8811 	msr	BASEPRI, r3
  return (bool)(vtp->dlist.next != NULL);
 8001660:	683b      	ldr	r3, [r7, #0]
  if (chVTIsArmedI(vtp)) {
 8001662:	b163      	cbz	r3, 800167e <eventHandle+0x3ae>
  vtp->dlist.next = NULL;
 8001664:	2000      	movs	r0, #0
  vtlp->dlist.delta = (sysinterval_t)-1;
 8001666:	f04f 31ff 	mov.w	r1, #4294967295
  vtp->dlist.next->delta += vtp->dlist.delta;
 800166a:	689a      	ldr	r2, [r3, #8]
 800166c:	f8d7 c008 	ldr.w	ip, [r7, #8]
 8001670:	4462      	add	r2, ip
 8001672:	609a      	str	r2, [r3, #8]
  dlp->prev->next = dlp->next;
 8001674:	687a      	ldr	r2, [r7, #4]
 8001676:	6013      	str	r3, [r2, #0]
  dlp->next->prev = dlp->prev;
 8001678:	605a      	str	r2, [r3, #4]
  vtp->dlist.next = NULL;
 800167a:	6038      	str	r0, [r7, #0]
  vtlp->dlist.delta = (sysinterval_t)-1;
 800167c:	61a1      	str	r1, [r4, #24]
  vtp->par     = par;
 800167e:	2200      	movs	r2, #0
  vtp->func    = vtfunc;
 8001680:	4b48      	ldr	r3, [pc, #288]	@ (80017a4 <eventHandle+0x4d4>)
 8001682:	60fb      	str	r3, [r7, #12]
  dlp = dlhp->next;
 8001684:	6923      	ldr	r3, [r4, #16]
  while (likely(dlp->delta < delta)) {
 8001686:	6899      	ldr	r1, [r3, #8]
  vtp->reload  = (sysinterval_t)0;
 8001688:	e9c7 2204 	strd	r2, r2, [r7, #16]
 800168c:	f5b1 7f7a 	cmp.w	r1, #1000	@ 0x3e8
 8001690:	f44f 727a 	mov.w	r2, #1000	@ 0x3e8
 8001694:	d2a1      	bcs.n	80015da <eventHandle+0x30a>
    dlp = dlp->next;
 8001696:	681b      	ldr	r3, [r3, #0]
    delta -= dlp->delta;
 8001698:	1a52      	subs	r2, r2, r1
  while (likely(dlp->delta < delta)) {
 800169a:	6899      	ldr	r1, [r3, #8]
 800169c:	4291      	cmp	r1, r2
 800169e:	d3fa      	bcc.n	8001696 <eventHandle+0x3c6>
 80016a0:	e79b      	b.n	80015da <eventHandle+0x30a>
                previous_state = WASH_TURN_CLKWISE;
 80016a2:	2304      	movs	r3, #4
 80016a4:	f88b 3000 	strb.w	r3, [fp]
                current_state = WASH_TURN_ANTI_CLKWISE;
 80016a8:	2305      	movs	r3, #5
 80016aa:	f888 3000 	strb.w	r3, [r8]
 80016ae:	2330      	movs	r3, #48	@ 0x30
 80016b0:	f383 8811 	msr	BASEPRI, r3
  return (bool)(vtp->dlist.next != NULL);
 80016b4:	683b      	ldr	r3, [r7, #0]
  if (chVTIsArmedI(vtp)) {
 80016b6:	b163      	cbz	r3, 80016d2 <eventHandle+0x402>
  vtp->dlist.next = NULL;
 80016b8:	2000      	movs	r0, #0
  vtlp->dlist.delta = (sysinterval_t)-1;
 80016ba:	f04f 31ff 	mov.w	r1, #4294967295
  vtp->dlist.next->delta += vtp->dlist.delta;
 80016be:	689a      	ldr	r2, [r3, #8]
 80016c0:	f8d7 c008 	ldr.w	ip, [r7, #8]
 80016c4:	4462      	add	r2, ip
 80016c6:	609a      	str	r2, [r3, #8]
  dlp->prev->next = dlp->next;
 80016c8:	687a      	ldr	r2, [r7, #4]
 80016ca:	6013      	str	r3, [r2, #0]
  dlp->next->prev = dlp->prev;
 80016cc:	605a      	str	r2, [r3, #4]
  vtp->dlist.next = NULL;
 80016ce:	6038      	str	r0, [r7, #0]
  vtlp->dlist.delta = (sysinterval_t)-1;
 80016d0:	61a1      	str	r1, [r4, #24]
  vtp->par     = par;
 80016d2:	2200      	movs	r2, #0
  vtp->func    = vtfunc;
 80016d4:	4b33      	ldr	r3, [pc, #204]	@ (80017a4 <eventHandle+0x4d4>)
 80016d6:	60fb      	str	r3, [r7, #12]
  dlp = dlhp->next;
 80016d8:	6923      	ldr	r3, [r4, #16]
  while (likely(dlp->delta < delta)) {
 80016da:	6899      	ldr	r1, [r3, #8]
  vtp->reload  = (sysinterval_t)0;
 80016dc:	e9c7 2204 	strd	r2, r2, [r7, #16]
 80016e0:	f5b1 7f7a 	cmp.w	r1, #1000	@ 0x3e8
 80016e4:	f44f 727a 	mov.w	r2, #1000	@ 0x3e8
 80016e8:	f4bf af77 	bcs.w	80015da <eventHandle+0x30a>
    dlp = dlp->next;
 80016ec:	681b      	ldr	r3, [r3, #0]
    delta -= dlp->delta;
 80016ee:	1a52      	subs	r2, r2, r1
  while (likely(dlp->delta < delta)) {
 80016f0:	6899      	ldr	r1, [r3, #8]
 80016f2:	4291      	cmp	r1, r2
 80016f4:	d3fa      	bcc.n	80016ec <eventHandle+0x41c>
 80016f6:	e770      	b.n	80015da <eventHandle+0x30a>
                previous_state = WASH_TURN_ANTI_CLKWISE;
 80016f8:	2305      	movs	r3, #5
 80016fa:	f88b 3000 	strb.w	r3, [fp]
                current_state = WASH_TURN_CLKWISE;
 80016fe:	2304      	movs	r3, #4
 8001700:	f888 3000 	strb.w	r3, [r8]
 8001704:	2330      	movs	r3, #48	@ 0x30
 8001706:	f383 8811 	msr	BASEPRI, r3
  return (bool)(vtp->dlist.next != NULL);
 800170a:	683b      	ldr	r3, [r7, #0]
  if (chVTIsArmedI(vtp)) {
 800170c:	b163      	cbz	r3, 8001728 <eventHandle+0x458>
  vtp->dlist.next = NULL;
 800170e:	2000      	movs	r0, #0
  vtlp->dlist.delta = (sysinterval_t)-1;
 8001710:	f04f 31ff 	mov.w	r1, #4294967295
  vtp->dlist.next->delta += vtp->dlist.delta;
 8001714:	689a      	ldr	r2, [r3, #8]
 8001716:	f8d7 c008 	ldr.w	ip, [r7, #8]
 800171a:	4462      	add	r2, ip
 800171c:	609a      	str	r2, [r3, #8]
  dlp->prev->next = dlp->next;
 800171e:	687a      	ldr	r2, [r7, #4]
 8001720:	6013      	str	r3, [r2, #0]
  dlp->next->prev = dlp->prev;
 8001722:	605a      	str	r2, [r3, #4]
  vtp->dlist.next = NULL;
 8001724:	6038      	str	r0, [r7, #0]
  vtlp->dlist.delta = (sysinterval_t)-1;
 8001726:	61a1      	str	r1, [r4, #24]
  vtp->par     = par;
 8001728:	2200      	movs	r2, #0
  vtp->func    = vtfunc;
 800172a:	4b1e      	ldr	r3, [pc, #120]	@ (80017a4 <eventHandle+0x4d4>)
 800172c:	60fb      	str	r3, [r7, #12]
  dlp = dlhp->next;
 800172e:	6923      	ldr	r3, [r4, #16]
  while (likely(dlp->delta < delta)) {
 8001730:	6899      	ldr	r1, [r3, #8]
  vtp->reload  = (sysinterval_t)0;
 8001732:	e9c7 2204 	strd	r2, r2, [r7, #16]
 8001736:	f5b1 7f7a 	cmp.w	r1, #1000	@ 0x3e8
 800173a:	f44f 727a 	mov.w	r2, #1000	@ 0x3e8
 800173e:	f4bf af4c 	bcs.w	80015da <eventHandle+0x30a>
    dlp = dlp->next;
 8001742:	681b      	ldr	r3, [r3, #0]
    delta -= dlp->delta;
 8001744:	1a52      	subs	r2, r2, r1
  while (likely(dlp->delta < delta)) {
 8001746:	6899      	ldr	r1, [r3, #8]
 8001748:	4291      	cmp	r1, r2
 800174a:	d3fa      	bcc.n	8001742 <eventHandle+0x472>
 800174c:	e745      	b.n	80015da <eventHandle+0x30a>
                previous_state = SOAK_TURN_ANTI_CLKWISE;
 800174e:	2303      	movs	r3, #3
 8001750:	f88b 3000 	strb.w	r3, [fp]
                current_state = SOAK_TURN_CLKWISE;
 8001754:	2302      	movs	r3, #2
 8001756:	f888 3000 	strb.w	r3, [r8]
 800175a:	2330      	movs	r3, #48	@ 0x30
 800175c:	f383 8811 	msr	BASEPRI, r3
  return (bool)(vtp->dlist.next != NULL);
 8001760:	683b      	ldr	r3, [r7, #0]
  if (chVTIsArmedI(vtp)) {
 8001762:	b163      	cbz	r3, 800177e <eventHandle+0x4ae>
  vtp->dlist.next = NULL;
 8001764:	2000      	movs	r0, #0
  vtlp->dlist.delta = (sysinterval_t)-1;
 8001766:	f04f 31ff 	mov.w	r1, #4294967295
  vtp->dlist.next->delta += vtp->dlist.delta;
 800176a:	689a      	ldr	r2, [r3, #8]
 800176c:	f8d7 c008 	ldr.w	ip, [r7, #8]
 8001770:	4462      	add	r2, ip
 8001772:	609a      	str	r2, [r3, #8]
  dlp->prev->next = dlp->next;
 8001774:	687a      	ldr	r2, [r7, #4]
 8001776:	6013      	str	r3, [r2, #0]
  dlp->next->prev = dlp->prev;
 8001778:	605a      	str	r2, [r3, #4]
  vtp->dlist.next = NULL;
 800177a:	6038      	str	r0, [r7, #0]
  vtlp->dlist.delta = (sysinterval_t)-1;
 800177c:	61a1      	str	r1, [r4, #24]
  vtp->par     = par;
 800177e:	2200      	movs	r2, #0
  vtp->func    = vtfunc;
 8001780:	4b08      	ldr	r3, [pc, #32]	@ (80017a4 <eventHandle+0x4d4>)
 8001782:	60fb      	str	r3, [r7, #12]
  dlp = dlhp->next;
 8001784:	6923      	ldr	r3, [r4, #16]
  while (likely(dlp->delta < delta)) {
 8001786:	6899      	ldr	r1, [r3, #8]
  vtp->reload  = (sysinterval_t)0;
 8001788:	e9c7 2204 	strd	r2, r2, [r7, #16]
 800178c:	f5b1 7f7a 	cmp.w	r1, #1000	@ 0x3e8
 8001790:	f44f 727a 	mov.w	r2, #1000	@ 0x3e8
 8001794:	f4bf af21 	bcs.w	80015da <eventHandle+0x30a>
    dlp = dlp->next;
 8001798:	681b      	ldr	r3, [r3, #0]
    delta -= dlp->delta;
 800179a:	1a52      	subs	r2, r2, r1
  while (likely(dlp->delta < delta)) {
 800179c:	6899      	ldr	r1, [r3, #8]
 800179e:	4291      	cmp	r1, r2
 80017a0:	d3fa      	bcc.n	8001798 <eventHandle+0x4c8>
 80017a2:	e71a      	b.n	80015da <eventHandle+0x30a>
 80017a4:	08000731 	.word	0x08000731
        else if(events & TIMEOUT_SOAK_EVENT) {
 80017a8:	0659      	lsls	r1, r3, #25
 80017aa:	f140 80d9 	bpl.w	8001960 <eventHandle+0x690>
            if(current_state == SOAK_TURN_CLKWISE) {
 80017ae:	f898 3000 	ldrb.w	r3, [r8]
 80017b2:	2b02      	cmp	r3, #2
 80017b4:	f000 8100 	beq.w	80019b8 <eventHandle+0x6e8>
            else if(current_state == SOAK_TURN_ANTI_CLKWISE) {
 80017b8:	2b03      	cmp	r3, #3
 80017ba:	f47f adb3 	bne.w	8001324 <eventHandle+0x54>
                previous_state = SOAK_TURN_ANTI_CLKWISE;
 80017be:	f88b 3000 	strb.w	r3, [fp]
                current_state = WASH_TURN_CLKWISE;
 80017c2:	2304      	movs	r3, #4
 80017c4:	f888 3000 	strb.w	r3, [r8]
 80017c8:	2330      	movs	r3, #48	@ 0x30
 80017ca:	f383 8811 	msr	BASEPRI, r3
  return (bool)(vtp->dlist.next != NULL);
 80017ce:	f8df c2b4 	ldr.w	ip, [pc, #692]	@ 8001a84 <eventHandle+0x7b4>
 80017d2:	f8dc 3000 	ldr.w	r3, [ip]
  if (chVTIsArmedI(vtp)) {
 80017d6:	b16b      	cbz	r3, 80017f4 <eventHandle+0x524>
  vtlp->dlist.delta = (sysinterval_t)-1;
 80017d8:	f04f 30ff 	mov.w	r0, #4294967295
  vtp->dlist.next->delta += vtp->dlist.delta;
 80017dc:	6899      	ldr	r1, [r3, #8]
 80017de:	f8dc e008 	ldr.w	lr, [ip, #8]
 80017e2:	4471      	add	r1, lr
 80017e4:	6099      	str	r1, [r3, #8]
  dlp->prev->next = dlp->next;
 80017e6:	f8dc 1004 	ldr.w	r1, [ip, #4]
 80017ea:	600b      	str	r3, [r1, #0]
  dlp->next->prev = dlp->prev;
 80017ec:	6059      	str	r1, [r3, #4]
  vtp->dlist.next = NULL;
 80017ee:	f8cc 2000 	str.w	r2, [ip]
  vtlp->dlist.delta = (sysinterval_t)-1;
 80017f2:	61a0      	str	r0, [r4, #24]
  vtp->par     = par;
 80017f4:	2200      	movs	r2, #0
  vtp->func    = vtfunc;
 80017f6:	f8df c28c 	ldr.w	ip, [pc, #652]	@ 8001a84 <eventHandle+0x7b4>
 80017fa:	4ba3      	ldr	r3, [pc, #652]	@ (8001a88 <eventHandle+0x7b8>)
  while (likely(dlp->delta < delta)) {
 80017fc:	48a3      	ldr	r0, [pc, #652]	@ (8001a8c <eventHandle+0x7bc>)
 80017fe:	f8cc 300c 	str.w	r3, [ip, #12]
  dlp = dlhp->next;
 8001802:	6923      	ldr	r3, [r4, #16]
  while (likely(dlp->delta < delta)) {
 8001804:	6899      	ldr	r1, [r3, #8]
  vtp->reload  = (sysinterval_t)0;
 8001806:	e9cc 2204 	strd	r2, r2, [ip, #16]
 800180a:	4281      	cmp	r1, r0
 800180c:	4aa0      	ldr	r2, [pc, #640]	@ (8001a90 <eventHandle+0x7c0>)
 800180e:	d804      	bhi.n	800181a <eventHandle+0x54a>
    dlp = dlp->next;
 8001810:	681b      	ldr	r3, [r3, #0]
    delta -= dlp->delta;
 8001812:	1a52      	subs	r2, r2, r1
  while (likely(dlp->delta < delta)) {
 8001814:	6899      	ldr	r1, [r3, #8]
 8001816:	4291      	cmp	r1, r2
 8001818:	d3fa      	bcc.n	8001810 <eventHandle+0x540>
  dlhp->delta = (sysinterval_t)-1;
 800181a:	f04f 30ff 	mov.w	r0, #4294967295
  dlp->delta      = delta;
 800181e:	f8df c264 	ldr.w	ip, [pc, #612]	@ 8001a84 <eventHandle+0x7b4>
 8001822:	f8cc 2008 	str.w	r2, [ip, #8]
  dlp->delta -= delta;
 8001826:	6899      	ldr	r1, [r3, #8]
  dlp->next       = dlhp;
 8001828:	f8cc 3000 	str.w	r3, [ip]
  dlp->delta -= delta;
 800182c:	1a89      	subs	r1, r1, r2
  dlp->prev       = dlp->next->prev;
 800182e:	685a      	ldr	r2, [r3, #4]
 8001830:	f8cc 2004 	str.w	r2, [ip, #4]
  dlp->prev->next = dlp;
 8001834:	f8c2 c000 	str.w	ip, [r2]
  dlhp->prev      = dlp;
 8001838:	e9c3 c101 	strd	ip, r1, [r3, #4]
 800183c:	2100      	movs	r1, #0
  dlhp->delta = (sysinterval_t)-1;
 800183e:	61a0      	str	r0, [r4, #24]
 8001840:	f381 8811 	msr	BASEPRI, r1
 8001844:	2330      	movs	r3, #48	@ 0x30
 8001846:	f383 8811 	msr	BASEPRI, r3
  return (bool)(vtp->dlist.next != NULL);
 800184a:	683b      	ldr	r3, [r7, #0]
  if (chVTIsArmedI(vtp)) {
 800184c:	b14b      	cbz	r3, 8001862 <eventHandle+0x592>
  vtp->dlist.next->delta += vtp->dlist.delta;
 800184e:	689a      	ldr	r2, [r3, #8]
 8001850:	f8d7 c008 	ldr.w	ip, [r7, #8]
 8001854:	4462      	add	r2, ip
 8001856:	609a      	str	r2, [r3, #8]
  dlp->prev->next = dlp->next;
 8001858:	687a      	ldr	r2, [r7, #4]
 800185a:	6013      	str	r3, [r2, #0]
  dlp->next->prev = dlp->prev;
 800185c:	605a      	str	r2, [r3, #4]
  vtp->dlist.next = NULL;
 800185e:	6039      	str	r1, [r7, #0]
  vtlp->dlist.delta = (sysinterval_t)-1;
 8001860:	61a0      	str	r0, [r4, #24]
  vtp->par     = par;
 8001862:	2200      	movs	r2, #0
  vtp->func    = vtfunc;
 8001864:	4b8b      	ldr	r3, [pc, #556]	@ (8001a94 <eventHandle+0x7c4>)
 8001866:	60fb      	str	r3, [r7, #12]
  dlp = dlhp->next;
 8001868:	6923      	ldr	r3, [r4, #16]
  while (likely(dlp->delta < delta)) {
 800186a:	6899      	ldr	r1, [r3, #8]
  vtp->reload  = (sysinterval_t)0;
 800186c:	e9c7 2204 	strd	r2, r2, [r7, #16]
 8001870:	f5b1 7f7a 	cmp.w	r1, #1000	@ 0x3e8
 8001874:	f44f 727a 	mov.w	r2, #1000	@ 0x3e8
 8001878:	f4bf aeaf 	bcs.w	80015da <eventHandle+0x30a>
    dlp = dlp->next;
 800187c:	681b      	ldr	r3, [r3, #0]
    delta -= dlp->delta;
 800187e:	1a52      	subs	r2, r2, r1
  while (likely(dlp->delta < delta)) {
 8001880:	6899      	ldr	r1, [r3, #8]
 8001882:	4291      	cmp	r1, r2
 8001884:	f4bf aea9 	bcs.w	80015da <eventHandle+0x30a>
    dlp = dlp->next;
 8001888:	681b      	ldr	r3, [r3, #0]
    delta -= dlp->delta;
 800188a:	1a52      	subs	r2, r2, r1
  while (likely(dlp->delta < delta)) {
 800188c:	6899      	ldr	r1, [r3, #8]
 800188e:	4291      	cmp	r1, r2
 8001890:	d3f4      	bcc.n	800187c <eventHandle+0x5ac>
 8001892:	e6a2      	b.n	80015da <eventHandle+0x30a>
                previous_state = SOAK_WATER_IN;
 8001894:	f88b 3000 	strb.w	r3, [fp]
                current_state = SOAK_TURN_CLKWISE;
 8001898:	2302      	movs	r3, #2
 800189a:	f888 3000 	strb.w	r3, [r8]
 800189e:	f385 8811 	msr	BASEPRI, r5
  return (bool)(vtp->dlist.next != NULL);
 80018a2:	f8da 3000 	ldr.w	r3, [sl]
  if (chVTIsArmedI(vtp)) {
 80018a6:	b16b      	cbz	r3, 80018c4 <eventHandle+0x5f4>
  vtlp->dlist.delta = (sysinterval_t)-1;
 80018a8:	f04f 30ff 	mov.w	r0, #4294967295
  vtp->dlist.next->delta += vtp->dlist.delta;
 80018ac:	6899      	ldr	r1, [r3, #8]
 80018ae:	f8da c008 	ldr.w	ip, [sl, #8]
 80018b2:	4461      	add	r1, ip
 80018b4:	6099      	str	r1, [r3, #8]
  dlp->prev->next = dlp->next;
 80018b6:	f8da 1004 	ldr.w	r1, [sl, #4]
 80018ba:	600b      	str	r3, [r1, #0]
  dlp->next->prev = dlp->prev;
 80018bc:	6059      	str	r1, [r3, #4]
  vtp->dlist.next = NULL;
 80018be:	f8ca 2000 	str.w	r2, [sl]
  vtlp->dlist.delta = (sysinterval_t)-1;
 80018c2:	61a0      	str	r0, [r4, #24]
  while (likely(dlp->delta < delta)) {
 80018c4:	f644 621f 	movw	r2, #19999	@ 0x4e1f
  vtp->func    = vtfunc;
 80018c8:	4b73      	ldr	r3, [pc, #460]	@ (8001a98 <eventHandle+0x7c8>)
  vtp->par     = par;
 80018ca:	f8ca 9010 	str.w	r9, [sl, #16]
  vtp->func    = vtfunc;
 80018ce:	f8ca 300c 	str.w	r3, [sl, #12]
  dlp = dlhp->next;
 80018d2:	6923      	ldr	r3, [r4, #16]
  vtp->reload  = (sysinterval_t)0;
 80018d4:	f8ca 9014 	str.w	r9, [sl, #20]
  while (likely(dlp->delta < delta)) {
 80018d8:	6899      	ldr	r1, [r3, #8]
 80018da:	4291      	cmp	r1, r2
 80018dc:	f644 6220 	movw	r2, #20000	@ 0x4e20
 80018e0:	d804      	bhi.n	80018ec <eventHandle+0x61c>
    dlp = dlp->next;
 80018e2:	681b      	ldr	r3, [r3, #0]
    delta -= dlp->delta;
 80018e4:	1a52      	subs	r2, r2, r1
  while (likely(dlp->delta < delta)) {
 80018e6:	6899      	ldr	r1, [r3, #8]
 80018e8:	4291      	cmp	r1, r2
 80018ea:	d3fa      	bcc.n	80018e2 <eventHandle+0x612>
  dlhp->delta = (sysinterval_t)-1;
 80018ec:	f04f 30ff 	mov.w	r0, #4294967295
  dlp->delta      = delta;
 80018f0:	f8ca 2008 	str.w	r2, [sl, #8]
  dlp->delta -= delta;
 80018f4:	6899      	ldr	r1, [r3, #8]
  dlp->next       = dlhp;
 80018f6:	f8ca 3000 	str.w	r3, [sl]
  dlp->delta -= delta;
 80018fa:	1a89      	subs	r1, r1, r2
  dlp->prev       = dlp->next->prev;
 80018fc:	685a      	ldr	r2, [r3, #4]
 80018fe:	f8ca 2004 	str.w	r2, [sl, #4]
  dlp->prev->next = dlp;
 8001902:	f8c2 a000 	str.w	sl, [r2]
  dlhp->prev      = dlp;
 8001906:	e9c3 a101 	strd	sl, r1, [r3, #4]
  dlhp->delta = (sysinterval_t)-1;
 800190a:	61a0      	str	r0, [r4, #24]
 800190c:	f386 8811 	msr	BASEPRI, r6
 8001910:	f385 8811 	msr	BASEPRI, r5
  return (bool)(vtp->dlist.next != NULL);
 8001914:	683b      	ldr	r3, [r7, #0]
  if (chVTIsArmedI(vtp)) {
 8001916:	b14b      	cbz	r3, 800192c <eventHandle+0x65c>
  vtp->dlist.next->delta += vtp->dlist.delta;
 8001918:	689a      	ldr	r2, [r3, #8]
 800191a:	68b9      	ldr	r1, [r7, #8]
 800191c:	440a      	add	r2, r1
 800191e:	609a      	str	r2, [r3, #8]
  dlp->prev->next = dlp->next;
 8001920:	687a      	ldr	r2, [r7, #4]
 8001922:	6013      	str	r3, [r2, #0]
  dlp->next->prev = dlp->prev;
 8001924:	605a      	str	r2, [r3, #4]
  vtp->dlist.next = NULL;
 8001926:	f8c7 9000 	str.w	r9, [r7]
  vtlp->dlist.delta = (sysinterval_t)-1;
 800192a:	61a0      	str	r0, [r4, #24]
  vtp->func    = vtfunc;
 800192c:	4b59      	ldr	r3, [pc, #356]	@ (8001a94 <eventHandle+0x7c4>)
  while (likely(dlp->delta < delta)) {
 800192e:	f44f 727a 	mov.w	r2, #1000	@ 0x3e8
 8001932:	60fb      	str	r3, [r7, #12]
  dlp = dlhp->next;
 8001934:	6923      	ldr	r3, [r4, #16]
  vtp->par     = par;
 8001936:	f8c7 9010 	str.w	r9, [r7, #16]
  while (likely(dlp->delta < delta)) {
 800193a:	6899      	ldr	r1, [r3, #8]
  vtp->reload  = (sysinterval_t)0;
 800193c:	f8c7 9014 	str.w	r9, [r7, #20]
 8001940:	f5b1 7f7a 	cmp.w	r1, #1000	@ 0x3e8
 8001944:	f4bf ad78 	bcs.w	8001438 <eventHandle+0x168>
    dlp = dlp->next;
 8001948:	681b      	ldr	r3, [r3, #0]
    delta -= dlp->delta;
 800194a:	1a52      	subs	r2, r2, r1
  while (likely(dlp->delta < delta)) {
 800194c:	6899      	ldr	r1, [r3, #8]
 800194e:	4291      	cmp	r1, r2
 8001950:	d3fa      	bcc.n	8001948 <eventHandle+0x678>
 8001952:	e571      	b.n	8001438 <eventHandle+0x168>
                previous_state = WASH_WATER_OUT;
 8001954:	f88b 3000 	strb.w	r3, [fp]
                current_state = RINSE_WATER_IN;
 8001958:	2307      	movs	r3, #7
 800195a:	f888 3000 	strb.w	r3, [r8]
 800195e:	e4e1      	b.n	8001324 <eventHandle+0x54>
        else if(events & TIMEOUT_WASH_EVENT) {
 8001960:	0618      	lsls	r0, r3, #24
 8001962:	d50c      	bpl.n	800197e <eventHandle+0x6ae>
            if(current_state == WASH_TURN_CLKWISE) {
 8001964:	f898 3000 	ldrb.w	r3, [r8]
 8001968:	2b04      	cmp	r3, #4
 800196a:	d002      	beq.n	8001972 <eventHandle+0x6a2>
            else if(current_state == WASH_TURN_ANTI_CLKWISE) {
 800196c:	2b05      	cmp	r3, #5
 800196e:	f47f acd9 	bne.w	8001324 <eventHandle+0x54>
                previous_state = WASH_TURN_ANTI_CLKWISE;
 8001972:	f88b 3000 	strb.w	r3, [fp]
                current_state = WASH_WATER_OUT;
 8001976:	2306      	movs	r3, #6
 8001978:	f888 3000 	strb.w	r3, [r8]
 800197c:	e4d2      	b.n	8001324 <eventHandle+0x54>
        else if(events & TIMEOUT_RINSE_EVENT) {
 800197e:	f413 7180 	ands.w	r1, r3, #256	@ 0x100
 8001982:	d00c      	beq.n	800199e <eventHandle+0x6ce>
            if(current_state == RINSE_TURN_CLKWISE) {
 8001984:	f898 3000 	ldrb.w	r3, [r8]
 8001988:	2b08      	cmp	r3, #8
 800198a:	d002      	beq.n	8001992 <eventHandle+0x6c2>
            else if(current_state == RINSE_TURN_ANTI_CLKWISE) {
 800198c:	2b09      	cmp	r3, #9
 800198e:	f47f acc9 	bne.w	8001324 <eventHandle+0x54>
                previous_state = RINSE_TURN_ANTI_CLKWISE;
 8001992:	f88b 3000 	strb.w	r3, [fp]
                current_state = RINSE_WATER_OUT;
 8001996:	230a      	movs	r3, #10
 8001998:	f888 3000 	strb.w	r3, [r8]
 800199c:	e4c2      	b.n	8001324 <eventHandle+0x54>
        else if(events & TIMEOUT_CENTRIFUGE_EVENT) {
 800199e:	f413 7200 	ands.w	r2, r3, #512	@ 0x200
 80019a2:	d07b      	beq.n	8001a9c <eventHandle+0x7cc>
            if(current_state == CENTRIFUGE) {
 80019a4:	f898 3000 	ldrb.w	r3, [r8]
 80019a8:	2b0b      	cmp	r3, #11
 80019aa:	f47f acbb 	bne.w	8001324 <eventHandle+0x54>
                previous_state = CENTRIFUGE;
 80019ae:	f88b 3000 	strb.w	r3, [fp]
                current_state = IDLE;
 80019b2:	f888 1000 	strb.w	r1, [r8]
 80019b6:	e4b5      	b.n	8001324 <eventHandle+0x54>
                previous_state = SOAK_TURN_CLKWISE;
 80019b8:	f88b 3000 	strb.w	r3, [fp]
                current_state = WASH_TURN_CLKWISE;
 80019bc:	2304      	movs	r3, #4
 80019be:	f888 3000 	strb.w	r3, [r8]
 80019c2:	2330      	movs	r3, #48	@ 0x30
 80019c4:	f383 8811 	msr	BASEPRI, r3
  return (bool)(vtp->dlist.next != NULL);
 80019c8:	f8df c0b8 	ldr.w	ip, [pc, #184]	@ 8001a84 <eventHandle+0x7b4>
 80019cc:	f8dc 3000 	ldr.w	r3, [ip]
  if (chVTIsArmedI(vtp)) {
 80019d0:	b16b      	cbz	r3, 80019ee <eventHandle+0x71e>
  vtlp->dlist.delta = (sysinterval_t)-1;
 80019d2:	f04f 30ff 	mov.w	r0, #4294967295
  vtp->dlist.next->delta += vtp->dlist.delta;
 80019d6:	6899      	ldr	r1, [r3, #8]
 80019d8:	f8dc e008 	ldr.w	lr, [ip, #8]
 80019dc:	4471      	add	r1, lr
 80019de:	6099      	str	r1, [r3, #8]
  dlp->prev->next = dlp->next;
 80019e0:	f8dc 1004 	ldr.w	r1, [ip, #4]
 80019e4:	600b      	str	r3, [r1, #0]
  dlp->next->prev = dlp->prev;
 80019e6:	6059      	str	r1, [r3, #4]
  vtp->dlist.next = NULL;
 80019e8:	f8cc 2000 	str.w	r2, [ip]
  vtlp->dlist.delta = (sysinterval_t)-1;
 80019ec:	61a0      	str	r0, [r4, #24]
  vtp->par     = par;
 80019ee:	2200      	movs	r2, #0
  vtp->func    = vtfunc;
 80019f0:	f8df c090 	ldr.w	ip, [pc, #144]	@ 8001a84 <eventHandle+0x7b4>
 80019f4:	4b24      	ldr	r3, [pc, #144]	@ (8001a88 <eventHandle+0x7b8>)
  while (likely(dlp->delta < delta)) {
 80019f6:	4825      	ldr	r0, [pc, #148]	@ (8001a8c <eventHandle+0x7bc>)
 80019f8:	f8cc 300c 	str.w	r3, [ip, #12]
  dlp = dlhp->next;
 80019fc:	6923      	ldr	r3, [r4, #16]
  while (likely(dlp->delta < delta)) {
 80019fe:	6899      	ldr	r1, [r3, #8]
  vtp->reload  = (sysinterval_t)0;
 8001a00:	e9cc 2204 	strd	r2, r2, [ip, #16]
 8001a04:	4281      	cmp	r1, r0
 8001a06:	4a22      	ldr	r2, [pc, #136]	@ (8001a90 <eventHandle+0x7c0>)
 8001a08:	d804      	bhi.n	8001a14 <eventHandle+0x744>
    dlp = dlp->next;
 8001a0a:	681b      	ldr	r3, [r3, #0]
    delta -= dlp->delta;
 8001a0c:	1a52      	subs	r2, r2, r1
  while (likely(dlp->delta < delta)) {
 8001a0e:	6899      	ldr	r1, [r3, #8]
 8001a10:	4291      	cmp	r1, r2
 8001a12:	d3fa      	bcc.n	8001a0a <eventHandle+0x73a>
  dlhp->delta = (sysinterval_t)-1;
 8001a14:	f04f 30ff 	mov.w	r0, #4294967295
  dlp->delta      = delta;
 8001a18:	f8df c068 	ldr.w	ip, [pc, #104]	@ 8001a84 <eventHandle+0x7b4>
 8001a1c:	f8cc 2008 	str.w	r2, [ip, #8]
  dlp->delta -= delta;
 8001a20:	6899      	ldr	r1, [r3, #8]
  dlp->next       = dlhp;
 8001a22:	f8cc 3000 	str.w	r3, [ip]
  dlp->delta -= delta;
 8001a26:	1a89      	subs	r1, r1, r2
  dlp->prev       = dlp->next->prev;
 8001a28:	685a      	ldr	r2, [r3, #4]
 8001a2a:	f8cc 2004 	str.w	r2, [ip, #4]
  dlp->prev->next = dlp;
 8001a2e:	f8c2 c000 	str.w	ip, [r2]
  dlhp->prev      = dlp;
 8001a32:	e9c3 c101 	strd	ip, r1, [r3, #4]
 8001a36:	2100      	movs	r1, #0
  dlhp->delta = (sysinterval_t)-1;
 8001a38:	61a0      	str	r0, [r4, #24]
 8001a3a:	f381 8811 	msr	BASEPRI, r1
 8001a3e:	2330      	movs	r3, #48	@ 0x30
 8001a40:	f383 8811 	msr	BASEPRI, r3
  return (bool)(vtp->dlist.next != NULL);
 8001a44:	683b      	ldr	r3, [r7, #0]
  if (chVTIsArmedI(vtp)) {
 8001a46:	b14b      	cbz	r3, 8001a5c <eventHandle+0x78c>
  vtp->dlist.next->delta += vtp->dlist.delta;
 8001a48:	689a      	ldr	r2, [r3, #8]
 8001a4a:	f8d7 c008 	ldr.w	ip, [r7, #8]
 8001a4e:	4462      	add	r2, ip
 8001a50:	609a      	str	r2, [r3, #8]
  dlp->prev->next = dlp->next;
 8001a52:	687a      	ldr	r2, [r7, #4]
 8001a54:	6013      	str	r3, [r2, #0]
  dlp->next->prev = dlp->prev;
 8001a56:	605a      	str	r2, [r3, #4]
  vtp->dlist.next = NULL;
 8001a58:	6039      	str	r1, [r7, #0]
  vtlp->dlist.delta = (sysinterval_t)-1;
 8001a5a:	61a0      	str	r0, [r4, #24]
  vtp->par     = par;
 8001a5c:	2200      	movs	r2, #0
  vtp->func    = vtfunc;
 8001a5e:	4b0d      	ldr	r3, [pc, #52]	@ (8001a94 <eventHandle+0x7c4>)
 8001a60:	60fb      	str	r3, [r7, #12]
  dlp = dlhp->next;
 8001a62:	6923      	ldr	r3, [r4, #16]
  while (likely(dlp->delta < delta)) {
 8001a64:	6899      	ldr	r1, [r3, #8]
  vtp->reload  = (sysinterval_t)0;
 8001a66:	e9c7 2204 	strd	r2, r2, [r7, #16]
 8001a6a:	f5b1 7f7a 	cmp.w	r1, #1000	@ 0x3e8
 8001a6e:	f44f 727a 	mov.w	r2, #1000	@ 0x3e8
 8001a72:	f4bf adb2 	bcs.w	80015da <eventHandle+0x30a>
    dlp = dlp->next;
 8001a76:	681b      	ldr	r3, [r3, #0]
    delta -= dlp->delta;
 8001a78:	1a52      	subs	r2, r2, r1
  while (likely(dlp->delta < delta)) {
 8001a7a:	6899      	ldr	r1, [r3, #8]
 8001a7c:	4291      	cmp	r1, r2
 8001a7e:	d3fa      	bcc.n	8001a76 <eventHandle+0x7a6>
 8001a80:	e5ab      	b.n	80015da <eventHandle+0x30a>
 8001a82:	bf00      	nop
 8001a84:	20001bbc 	.word	0x20001bbc
 8001a88:	08000771 	.word	0x08000771
 8001a8c:	000176ff 	.word	0x000176ff
 8001a90:	00017700 	.word	0x00017700
 8001a94:	08000731 	.word	0x08000731
 8001a98:	08000751 	.word	0x08000751
        else if(events & LID_OPEN_EVENT) {
 8001a9c:	0719      	lsls	r1, r3, #28
 8001a9e:	d546      	bpl.n	8001b2e <eventHandle+0x85e>
            current_state = OPEN_LID;
 8001aa0:	210c      	movs	r1, #12
            previous_state = current_state;
 8001aa2:	f898 3000 	ldrb.w	r3, [r8]
            current_state = OPEN_LID;
 8001aa6:	f888 1000 	strb.w	r1, [r8]
            if(previous_state == SOAK_TURN_CLKWISE || previous_state == SOAK_TURN_ANTI_CLKWISE) {
 8001aaa:	1e99      	subs	r1, r3, #2
 8001aac:	2901      	cmp	r1, #1
            previous_state = current_state;
 8001aae:	f88b 3000 	strb.w	r3, [fp]
            if(previous_state == SOAK_TURN_CLKWISE || previous_state == SOAK_TURN_ANTI_CLKWISE) {
 8001ab2:	d95f      	bls.n	8001b74 <eventHandle+0x8a4>
            else if(previous_state == WASH_TURN_CLKWISE || previous_state == WASH_TURN_ANTI_CLKWISE) {
 8001ab4:	1f19      	subs	r1, r3, #4
 8001ab6:	2901      	cmp	r1, #1
 8001ab8:	f240 80b7 	bls.w	8001c2a <eventHandle+0x95a>
            else if(previous_state == RINSE_TURN_CLKWISE || previous_state == RINSE_TURN_ANTI_CLKWISE) {
 8001abc:	3b08      	subs	r3, #8
 8001abe:	2b01      	cmp	r3, #1
 8001ac0:	f63f ac30 	bhi.w	8001324 <eventHandle+0x54>
        if (!vt_rinse_paused) {
 8001ac4:	4b96      	ldr	r3, [pc, #600]	@ (8001d20 <eventHandle+0xa50>)
 8001ac6:	7819      	ldrb	r1, [r3, #0]
 8001ac8:	f001 03ff 	and.w	r3, r1, #255	@ 0xff
 8001acc:	2900      	cmp	r1, #0
 8001ace:	f000 80c5 	beq.w	8001c5c <eventHandle+0x98c>
        if (!vt_motor_paused) {
 8001ad2:	4b94      	ldr	r3, [pc, #592]	@ (8001d24 <eventHandle+0xa54>)
 8001ad4:	781b      	ldrb	r3, [r3, #0]
 8001ad6:	2b00      	cmp	r3, #0
 8001ad8:	f47f ac24 	bne.w	8001324 <eventHandle+0x54>
  dlp = vtlp->dlist.next;
 8001adc:	6923      	ldr	r3, [r4, #16]
 8001ade:	e004      	b.n	8001aea <eventHandle+0x81a>
    dlp = dlp->next;
 8001ae0:	681b      	ldr	r3, [r3, #0]
  } while (dlp != &vtlp->dlist);
 8001ae2:	4991      	ldr	r1, [pc, #580]	@ (8001d28 <eventHandle+0xa58>)
 8001ae4:	428b      	cmp	r3, r1
 8001ae6:	f000 80b6 	beq.w	8001c56 <eventHandle+0x986>
    delta += dlp->delta;
 8001aea:	6899      	ldr	r1, [r3, #8]
    if (dlp == &vtp->dlist) {
 8001aec:	42bb      	cmp	r3, r7
    delta += dlp->delta;
 8001aee:	440a      	add	r2, r1
    if (dlp == &vtp->dlist) {
 8001af0:	d1f6      	bne.n	8001ae0 <eventHandle+0x810>
            remainingTime_motor = chVTGetRemainingIntervalI(&vt_motor);
 8001af2:	4b8e      	ldr	r3, [pc, #568]	@ (8001d2c <eventHandle+0xa5c>)
 8001af4:	601a      	str	r2, [r3, #0]
 8001af6:	2330      	movs	r3, #48	@ 0x30
 8001af8:	f383 8811 	msr	BASEPRI, r3
  return (bool)(vtp->dlist.next != NULL);
 8001afc:	683b      	ldr	r3, [r7, #0]
  if (chVTIsArmedI(vtp)) {
 8001afe:	b163      	cbz	r3, 8001b1a <eventHandle+0x84a>
  vtp->dlist.next = NULL;
 8001b00:	2000      	movs	r0, #0
  vtlp->dlist.delta = (sysinterval_t)-1;
 8001b02:	f04f 31ff 	mov.w	r1, #4294967295
  vtp->dlist.next->delta += vtp->dlist.delta;
 8001b06:	689a      	ldr	r2, [r3, #8]
 8001b08:	f8d7 c008 	ldr.w	ip, [r7, #8]
 8001b0c:	4462      	add	r2, ip
 8001b0e:	609a      	str	r2, [r3, #8]
  dlp->prev->next = dlp->next;
 8001b10:	687a      	ldr	r2, [r7, #4]
 8001b12:	6013      	str	r3, [r2, #0]
  dlp->next->prev = dlp->prev;
 8001b14:	605a      	str	r2, [r3, #4]
  vtp->dlist.next = NULL;
 8001b16:	6038      	str	r0, [r7, #0]
  vtlp->dlist.delta = (sysinterval_t)-1;
 8001b18:	61a1      	str	r1, [r4, #24]
 8001b1a:	2300      	movs	r3, #0
 8001b1c:	f383 8811 	msr	BASEPRI, r3
            vt_motor_paused = 1;
 8001b20:	2301      	movs	r3, #1
 8001b22:	4a80      	ldr	r2, [pc, #512]	@ (8001d24 <eventHandle+0xa54>)
 8001b24:	7013      	strb	r3, [r2, #0]
 8001b26:	f7ff bbfd 	b.w	8001324 <eventHandle+0x54>
  while (likely(dlp->delta < delta)) {
 8001b2a:	4a81      	ldr	r2, [pc, #516]	@ (8001d30 <eventHandle+0xa60>)
 8001b2c:	e450      	b.n	80013d0 <eventHandle+0x100>
        else if(events & LID_CLOSE_EVENT) {
 8001b2e:	06db      	lsls	r3, r3, #27
 8001b30:	f57f abf8 	bpl.w	8001324 <eventHandle+0x54>
            current_state = previous_state;
 8001b34:	f89b 3000 	ldrb.w	r3, [fp]
 8001b38:	f888 3000 	strb.w	r3, [r8]
            if(previous_state == SOAK_TURN_CLKWISE || previous_state == SOAK_TURN_ANTI_CLKWISE) {
 8001b3c:	3b02      	subs	r3, #2
 8001b3e:	2b09      	cmp	r3, #9
 8001b40:	f63f abf0 	bhi.w	8001324 <eventHandle+0x54>
 8001b44:	a201      	add	r2, pc, #4	@ (adr r2, 8001b4c <eventHandle+0x87c>)
 8001b46:	f852 f023 	ldr.w	pc, [r2, r3, lsl #2]
 8001b4a:	bf00      	nop
 8001b4c:	08001bbf 	.word	0x08001bbf
 8001b50:	08001bbf 	.word	0x08001bbf
 8001b54:	08001baf 	.word	0x08001baf
 8001b58:	08001baf 	.word	0x08001baf
 8001b5c:	08001325 	.word	0x08001325
 8001b60:	08001325 	.word	0x08001325
 8001b64:	08001b9f 	.word	0x08001b9f
 8001b68:	08001b9f 	.word	0x08001b9f
 8001b6c:	08001325 	.word	0x08001325
 8001b70:	08001c21 	.word	0x08001c21
        if (!vt_soak_paused) {
 8001b74:	4b6f      	ldr	r3, [pc, #444]	@ (8001d34 <eventHandle+0xa64>)
 8001b76:	7819      	ldrb	r1, [r3, #0]
 8001b78:	f001 03ff 	and.w	r3, r1, #255	@ 0xff
 8001b7c:	b339      	cbz	r1, 8001bce <eventHandle+0x8fe>
        if (!vt_motor_paused) {
 8001b7e:	4b69      	ldr	r3, [pc, #420]	@ (8001d24 <eventHandle+0xa54>)
 8001b80:	781b      	ldrb	r3, [r3, #0]
 8001b82:	2b00      	cmp	r3, #0
 8001b84:	f47f abce 	bne.w	8001324 <eventHandle+0x54>
  dlp = vtlp->dlist.next;
 8001b88:	6923      	ldr	r3, [r4, #16]
 8001b8a:	e003      	b.n	8001b94 <eventHandle+0x8c4>
    dlp = dlp->next;
 8001b8c:	681b      	ldr	r3, [r3, #0]
  } while (dlp != &vtlp->dlist);
 8001b8e:	4966      	ldr	r1, [pc, #408]	@ (8001d28 <eventHandle+0xa58>)
 8001b90:	428b      	cmp	r3, r1
 8001b92:	d060      	beq.n	8001c56 <eventHandle+0x986>
    delta += dlp->delta;
 8001b94:	6899      	ldr	r1, [r3, #8]
    if (dlp == &vtp->dlist) {
 8001b96:	42bb      	cmp	r3, r7
    delta += dlp->delta;
 8001b98:	440a      	add	r2, r1
    if (dlp == &vtp->dlist) {
 8001b9a:	d1f7      	bne.n	8001b8c <eventHandle+0x8bc>
 8001b9c:	e7a9      	b.n	8001af2 <eventHandle+0x822>
                resumeTimer(RINSE_TIMER);
 8001b9e:	2004      	movs	r0, #4
 8001ba0:	f7fe fc56 	bl	8000450 <resumeTimer>
                resumeTimer(MOTOR_TIMER);
 8001ba4:	2001      	movs	r0, #1
 8001ba6:	f7fe fc53 	bl	8000450 <resumeTimer>
 8001baa:	f7ff bbbb 	b.w	8001324 <eventHandle+0x54>
                resumeTimer(WASH_TIMER);
 8001bae:	2003      	movs	r0, #3
 8001bb0:	f7fe fc4e 	bl	8000450 <resumeTimer>
                resumeTimer(MOTOR_TIMER);
 8001bb4:	2001      	movs	r0, #1
 8001bb6:	f7fe fc4b 	bl	8000450 <resumeTimer>
 8001bba:	f7ff bbb3 	b.w	8001324 <eventHandle+0x54>
                resumeTimer(SOAK_TIMER);
 8001bbe:	2002      	movs	r0, #2
 8001bc0:	f7fe fc46 	bl	8000450 <resumeTimer>
                resumeTimer(MOTOR_TIMER);
 8001bc4:	2001      	movs	r0, #1
 8001bc6:	f7fe fc43 	bl	8000450 <resumeTimer>
 8001bca:	f7ff bbab 	b.w	8001324 <eventHandle+0x54>
  dlp = vtlp->dlist.next;
 8001bce:	6921      	ldr	r1, [r4, #16]
 8001bd0:	e003      	b.n	8001bda <eventHandle+0x90a>
    dlp = dlp->next;
 8001bd2:	6809      	ldr	r1, [r1, #0]
  } while (dlp != &vtlp->dlist);
 8001bd4:	4854      	ldr	r0, [pc, #336]	@ (8001d28 <eventHandle+0xa58>)
 8001bd6:	4281      	cmp	r1, r0
 8001bd8:	d06c      	beq.n	8001cb4 <eventHandle+0x9e4>
    delta += dlp->delta;
 8001bda:	6888      	ldr	r0, [r1, #8]
    if (dlp == &vtp->dlist) {
 8001bdc:	4551      	cmp	r1, sl
    delta += dlp->delta;
 8001bde:	4403      	add	r3, r0
    if (dlp == &vtp->dlist) {
 8001be0:	d1f7      	bne.n	8001bd2 <eventHandle+0x902>
            remainingTime_soak = chVTGetRemainingIntervalI(&vt_soak);
 8001be2:	4955      	ldr	r1, [pc, #340]	@ (8001d38 <eventHandle+0xa68>)
 8001be4:	600b      	str	r3, [r1, #0]
 8001be6:	2330      	movs	r3, #48	@ 0x30
 8001be8:	f383 8811 	msr	BASEPRI, r3
  return (bool)(vtp->dlist.next != NULL);
 8001bec:	f8da 3000 	ldr.w	r3, [sl]
  if (chVTIsArmedI(vtp)) {
 8001bf0:	b17b      	cbz	r3, 8001c12 <eventHandle+0x942>
  vtp->dlist.next = NULL;
 8001bf2:	f04f 0e00 	mov.w	lr, #0
  vtlp->dlist.delta = (sysinterval_t)-1;
 8001bf6:	f04f 30ff 	mov.w	r0, #4294967295
  vtp->dlist.next->delta += vtp->dlist.delta;
 8001bfa:	6899      	ldr	r1, [r3, #8]
 8001bfc:	f8da c008 	ldr.w	ip, [sl, #8]
 8001c00:	4461      	add	r1, ip
 8001c02:	6099      	str	r1, [r3, #8]
  dlp->prev->next = dlp->next;
 8001c04:	f8da 1004 	ldr.w	r1, [sl, #4]
 8001c08:	600b      	str	r3, [r1, #0]
  dlp->next->prev = dlp->prev;
 8001c0a:	6059      	str	r1, [r3, #4]
  vtp->dlist.next = NULL;
 8001c0c:	f8ca e000 	str.w	lr, [sl]
  vtlp->dlist.delta = (sysinterval_t)-1;
 8001c10:	61a0      	str	r0, [r4, #24]
 8001c12:	2300      	movs	r3, #0
 8001c14:	f383 8811 	msr	BASEPRI, r3
            vt_soak_paused = 1;
 8001c18:	2301      	movs	r3, #1
 8001c1a:	4946      	ldr	r1, [pc, #280]	@ (8001d34 <eventHandle+0xa64>)
 8001c1c:	700b      	strb	r3, [r1, #0]
 8001c1e:	e7ae      	b.n	8001b7e <eventHandle+0x8ae>
                resumeTimer(CENTRIFUGE_TIMER);
 8001c20:	2005      	movs	r0, #5
 8001c22:	f7fe fc15 	bl	8000450 <resumeTimer>
 8001c26:	f7ff bb7d 	b.w	8001324 <eventHandle+0x54>
        if (!vt_wash_paused) {
 8001c2a:	4b44      	ldr	r3, [pc, #272]	@ (8001d3c <eventHandle+0xa6c>)
 8001c2c:	7819      	ldrb	r1, [r3, #0]
 8001c2e:	f001 03ff 	and.w	r3, r1, #255	@ 0xff
 8001c32:	2900      	cmp	r1, #0
 8001c34:	d041      	beq.n	8001cba <eventHandle+0x9ea>
        if (!vt_motor_paused) {
 8001c36:	4b3b      	ldr	r3, [pc, #236]	@ (8001d24 <eventHandle+0xa54>)
 8001c38:	781b      	ldrb	r3, [r3, #0]
 8001c3a:	2b00      	cmp	r3, #0
 8001c3c:	f47f ab72 	bne.w	8001324 <eventHandle+0x54>
  dlp = vtlp->dlist.next;
 8001c40:	6923      	ldr	r3, [r4, #16]
 8001c42:	e003      	b.n	8001c4c <eventHandle+0x97c>
    dlp = dlp->next;
 8001c44:	681b      	ldr	r3, [r3, #0]
  } while (dlp != &vtlp->dlist);
 8001c46:	4938      	ldr	r1, [pc, #224]	@ (8001d28 <eventHandle+0xa58>)
 8001c48:	428b      	cmp	r3, r1
 8001c4a:	d004      	beq.n	8001c56 <eventHandle+0x986>
    delta += dlp->delta;
 8001c4c:	6899      	ldr	r1, [r3, #8]
    if (dlp == &vtp->dlist) {
 8001c4e:	42bb      	cmp	r3, r7
    delta += dlp->delta;
 8001c50:	440a      	add	r2, r1
    if (dlp == &vtp->dlist) {
 8001c52:	d1f7      	bne.n	8001c44 <eventHandle+0x974>
 8001c54:	e74d      	b.n	8001af2 <eventHandle+0x822>
  return (sysinterval_t)-1;
 8001c56:	f04f 32ff 	mov.w	r2, #4294967295
 8001c5a:	e74a      	b.n	8001af2 <eventHandle+0x822>
  dlp = vtlp->dlist.next;
 8001c5c:	6921      	ldr	r1, [r4, #16]
 8001c5e:	e003      	b.n	8001c68 <eventHandle+0x998>
    dlp = dlp->next;
 8001c60:	6809      	ldr	r1, [r1, #0]
  } while (dlp != &vtlp->dlist);
 8001c62:	4831      	ldr	r0, [pc, #196]	@ (8001d28 <eventHandle+0xa58>)
 8001c64:	4281      	cmp	r1, r0
 8001c66:	d057      	beq.n	8001d18 <eventHandle+0xa48>
    delta += dlp->delta;
 8001c68:	6888      	ldr	r0, [r1, #8]
 8001c6a:	4403      	add	r3, r0
    if (dlp == &vtp->dlist) {
 8001c6c:	4834      	ldr	r0, [pc, #208]	@ (8001d40 <eventHandle+0xa70>)
 8001c6e:	4281      	cmp	r1, r0
 8001c70:	d1f6      	bne.n	8001c60 <eventHandle+0x990>
            remainingTime_rinse = chVTGetRemainingIntervalI(&vt_rinse);
 8001c72:	4934      	ldr	r1, [pc, #208]	@ (8001d44 <eventHandle+0xa74>)
 8001c74:	600b      	str	r3, [r1, #0]
 8001c76:	2330      	movs	r3, #48	@ 0x30
 8001c78:	f383 8811 	msr	BASEPRI, r3
  return (bool)(vtp->dlist.next != NULL);
 8001c7c:	f8df c0c0 	ldr.w	ip, [pc, #192]	@ 8001d40 <eventHandle+0xa70>
 8001c80:	f8dc 3000 	ldr.w	r3, [ip]
  if (chVTIsArmedI(vtp)) {
 8001c84:	b17b      	cbz	r3, 8001ca6 <eventHandle+0x9d6>
  vtp->dlist.next->delta += vtp->dlist.delta;
 8001c86:	6898      	ldr	r0, [r3, #8]
 8001c88:	f8dc 1008 	ldr.w	r1, [ip, #8]
  vtp->dlist.next = NULL;
 8001c8c:	f04f 0e00 	mov.w	lr, #0
  vtp->dlist.next->delta += vtp->dlist.delta;
 8001c90:	4408      	add	r0, r1
  dlp->prev->next = dlp->next;
 8001c92:	f8dc 1004 	ldr.w	r1, [ip, #4]
 8001c96:	6098      	str	r0, [r3, #8]
 8001c98:	600b      	str	r3, [r1, #0]
  dlp->next->prev = dlp->prev;
 8001c9a:	6059      	str	r1, [r3, #4]
  vtlp->dlist.delta = (sysinterval_t)-1;
 8001c9c:	f04f 33ff 	mov.w	r3, #4294967295
  vtp->dlist.next = NULL;
 8001ca0:	f8cc e000 	str.w	lr, [ip]
  vtlp->dlist.delta = (sysinterval_t)-1;
 8001ca4:	61a3      	str	r3, [r4, #24]
 8001ca6:	2300      	movs	r3, #0
 8001ca8:	f383 8811 	msr	BASEPRI, r3
            vt_rinse_paused = 1;
 8001cac:	2301      	movs	r3, #1
 8001cae:	491c      	ldr	r1, [pc, #112]	@ (8001d20 <eventHandle+0xa50>)
 8001cb0:	700b      	strb	r3, [r1, #0]
 8001cb2:	e70e      	b.n	8001ad2 <eventHandle+0x802>
  return (sysinterval_t)-1;
 8001cb4:	f04f 33ff 	mov.w	r3, #4294967295
 8001cb8:	e793      	b.n	8001be2 <eventHandle+0x912>
  dlp = vtlp->dlist.next;
 8001cba:	6921      	ldr	r1, [r4, #16]
 8001cbc:	e003      	b.n	8001cc6 <eventHandle+0x9f6>
    dlp = dlp->next;
 8001cbe:	6809      	ldr	r1, [r1, #0]
  } while (dlp != &vtlp->dlist);
 8001cc0:	4819      	ldr	r0, [pc, #100]	@ (8001d28 <eventHandle+0xa58>)
 8001cc2:	4281      	cmp	r1, r0
 8001cc4:	d025      	beq.n	8001d12 <eventHandle+0xa42>
    delta += dlp->delta;
 8001cc6:	6888      	ldr	r0, [r1, #8]
 8001cc8:	4403      	add	r3, r0
    if (dlp == &vtp->dlist) {
 8001cca:	481f      	ldr	r0, [pc, #124]	@ (8001d48 <eventHandle+0xa78>)
 8001ccc:	4281      	cmp	r1, r0
 8001cce:	d1f6      	bne.n	8001cbe <eventHandle+0x9ee>
            remainingTime_wash = chVTGetRemainingIntervalI(&vt_wash);
 8001cd0:	491e      	ldr	r1, [pc, #120]	@ (8001d4c <eventHandle+0xa7c>)
 8001cd2:	600b      	str	r3, [r1, #0]
 8001cd4:	2330      	movs	r3, #48	@ 0x30
 8001cd6:	f383 8811 	msr	BASEPRI, r3
  return (bool)(vtp->dlist.next != NULL);
 8001cda:	f8df c06c 	ldr.w	ip, [pc, #108]	@ 8001d48 <eventHandle+0xa78>
 8001cde:	f8dc 3000 	ldr.w	r3, [ip]
  if (chVTIsArmedI(vtp)) {
 8001ce2:	b17b      	cbz	r3, 8001d04 <eventHandle+0xa34>
  vtp->dlist.next->delta += vtp->dlist.delta;
 8001ce4:	6898      	ldr	r0, [r3, #8]
 8001ce6:	f8dc 1008 	ldr.w	r1, [ip, #8]
  vtp->dlist.next = NULL;
 8001cea:	f04f 0e00 	mov.w	lr, #0
  vtp->dlist.next->delta += vtp->dlist.delta;
 8001cee:	4408      	add	r0, r1
  dlp->prev->next = dlp->next;
 8001cf0:	f8dc 1004 	ldr.w	r1, [ip, #4]
 8001cf4:	6098      	str	r0, [r3, #8]
 8001cf6:	600b      	str	r3, [r1, #0]
  dlp->next->prev = dlp->prev;
 8001cf8:	6059      	str	r1, [r3, #4]
  vtlp->dlist.delta = (sysinterval_t)-1;
 8001cfa:	f04f 33ff 	mov.w	r3, #4294967295
  vtp->dlist.next = NULL;
 8001cfe:	f8cc e000 	str.w	lr, [ip]
  vtlp->dlist.delta = (sysinterval_t)-1;
 8001d02:	61a3      	str	r3, [r4, #24]
 8001d04:	2300      	movs	r3, #0
 8001d06:	f383 8811 	msr	BASEPRI, r3
            vt_wash_paused = 1;
 8001d0a:	2301      	movs	r3, #1
 8001d0c:	490b      	ldr	r1, [pc, #44]	@ (8001d3c <eventHandle+0xa6c>)
 8001d0e:	700b      	strb	r3, [r1, #0]
 8001d10:	e791      	b.n	8001c36 <eventHandle+0x966>
  return (sysinterval_t)-1;
 8001d12:	f04f 33ff 	mov.w	r3, #4294967295
 8001d16:	e7db      	b.n	8001cd0 <eventHandle+0xa00>
 8001d18:	f04f 33ff 	mov.w	r3, #4294967295
 8001d1c:	e7a9      	b.n	8001c72 <eventHandle+0x9a2>
 8001d1e:	bf00      	nop
 8001d20:	20001bb8 	.word	0x20001bb8
 8001d24:	20001c18 	.word	0x20001c18
 8001d28:	20001c48 	.word	0x20001c48
 8001d2c:	20001c14 	.word	0x20001c14
 8001d30:	0001d4c0 	.word	0x0001d4c0
 8001d34:	20001bf8 	.word	0x20001bf8
 8001d38:	20001bf4 	.word	0x20001bf4
 8001d3c:	20001bd8 	.word	0x20001bd8
 8001d40:	20001b9c 	.word	0x20001b9c
 8001d44:	20001bb4 	.word	0x20001bb4
 8001d48:	20001bbc 	.word	0x20001bbc
 8001d4c:	20001bd4 	.word	0x20001bd4

08001d50 <chThdExit>:
 8001d50:	2330      	movs	r3, #48	@ 0x30
void chThdExit(msg_t msg) {
 8001d52:	b570      	push	{r4, r5, r6, lr}
 8001d54:	f383 8811 	msr	BASEPRI, r3
 8001d58:	4b1e      	ldr	r3, [pc, #120]	@ (8001dd4 <chThdExit+0x84>)
 8001d5a:	68d9      	ldr	r1, [r3, #12]
  return (bool)(lp->next != lp);
 8001d5c:	6aca      	ldr	r2, [r1, #44]	@ 0x2c
  while (unlikely(ch_list_notempty(&currtp->waiting))) {
 8001d5e:	f101 0c2c 	add.w	ip, r1, #44	@ 0x2c
 8001d62:	4562      	cmp	r2, ip
  tp->state = CH_STATE_READY;
 8001d64:	bf18      	it	ne
 8001d66:	f04f 0e00 	movne.w	lr, #0
  currtp->u.exitcode = msg;
 8001d6a:	6288      	str	r0, [r1, #40]	@ 0x28
  while (unlikely(ch_list_notempty(&currtp->waiting))) {
 8001d6c:	d113      	bne.n	8001d96 <chThdExit+0x46>
  if (unlikely(currtp->refs == (trefs_t)0)) {
 8001d6e:	f891 2026 	ldrb.w	r2, [r1, #38]	@ 0x26
 8001d72:	b32a      	cbz	r2, 8001dc0 <chThdExit+0x70>
  otp->state = newstate;
 8001d74:	220f      	movs	r2, #15
  ntp->state = CH_STATE_CURRENT;
 8001d76:	f04f 0c01 	mov.w	ip, #1
  ch_priority_queue_t *p = pqp->next;
 8001d7a:	6818      	ldr	r0, [r3, #0]
  otp->state = newstate;
 8001d7c:	f881 2024 	strb.w	r2, [r1, #36]	@ 0x24
  pqp->next       = p->next;
 8001d80:	6802      	ldr	r2, [r0, #0]
  pqp->next->prev = pqp;
 8001d82:	6053      	str	r3, [r2, #4]
  ntp->state = CH_STATE_CURRENT;
 8001d84:	f880 c024 	strb.w	ip, [r0, #36]	@ 0x24
}
 8001d88:	e8bd 4070 	ldmia.w	sp!, {r4, r5, r6, lr}
  pqp->next       = p->next;
 8001d8c:	601a      	str	r2, [r3, #0]
  __instance_set_currthread(oip, ntp);
 8001d8e:	60d8      	str	r0, [r3, #12]
  chSysSwitch(ntp, otp);
 8001d90:	f7fe ba56 	b.w	8000240 <__port_switch>
 8001d94:	4622      	mov	r2, r4
  lp->next = p->next;
 8001d96:	6814      	ldr	r4, [r2, #0]
  return threadref(ch_pqueue_insert_behind(&tp->owner->rlist.pqueue,
 8001d98:	6990      	ldr	r0, [r2, #24]
  } while (unlikely(pqp->prio >= p->prio));
 8001d9a:	6896      	ldr	r6, [r2, #8]
  lp->next = p->next;
 8001d9c:	62cc      	str	r4, [r1, #44]	@ 0x2c
  tp->state = CH_STATE_READY;
 8001d9e:	f882 e024 	strb.w	lr, [r2, #36]	@ 0x24
    pqp = pqp->next;
 8001da2:	6800      	ldr	r0, [r0, #0]
  } while (unlikely(pqp->prio >= p->prio));
 8001da4:	6885      	ldr	r5, [r0, #8]
 8001da6:	42b5      	cmp	r5, r6
 8001da8:	d2fb      	bcs.n	8001da2 <chThdExit+0x52>
  p->prev       = pqp->prev;
 8001daa:	6845      	ldr	r5, [r0, #4]
  while (unlikely(ch_list_notempty(&currtp->waiting))) {
 8001dac:	4564      	cmp	r4, ip
  p->next       = pqp;
 8001dae:	6010      	str	r0, [r2, #0]
  p->prev       = pqp->prev;
 8001db0:	6055      	str	r5, [r2, #4]
  p->prev->next = p;
 8001db2:	602a      	str	r2, [r5, #0]
  pqp->prev     = p;
 8001db4:	6042      	str	r2, [r0, #4]
 8001db6:	d1ed      	bne.n	8001d94 <chThdExit+0x44>
  if (unlikely(currtp->refs == (trefs_t)0)) {
 8001db8:	f891 2026 	ldrb.w	r2, [r1, #38]	@ 0x26
 8001dbc:	2a00      	cmp	r2, #0
 8001dbe:	d1d9      	bne.n	8001d74 <chThdExit+0x24>
    if (unlikely(((currtp->flags & CH_FLAG_MODE_MASK) == CH_FLAG_MODE_STATIC))) {
 8001dc0:	f891 2025 	ldrb.w	r2, [r1, #37]	@ 0x25
 8001dc4:	0792      	lsls	r2, r2, #30
 8001dc6:	d1d5      	bne.n	8001d74 <chThdExit+0x24>
  p->prev->next = p->next;
 8001dc8:	e9d1 2004 	ldrd	r2, r0, [r1, #16]
 8001dcc:	6002      	str	r2, [r0, #0]
  p->next->prev = p->prev;
 8001dce:	6050      	str	r0, [r2, #4]
  return p;
 8001dd0:	e7d0      	b.n	8001d74 <chThdExit+0x24>
 8001dd2:	bf00      	nop
 8001dd4:	20001c38 	.word	0x20001c38
	...

08001de0 <SVC_Handler>:
  __ASM volatile ("MRS %0, psp"  : "=r" (result) );
 8001de0:	f3ef 8309 	mrs	r3, PSP
    psp += sizeof (struct port_extctx);
 8001de4:	3320      	adds	r3, #32
  __ASM volatile ("MSR psp, %0" : : "r" (topOfProcStack) : );
 8001de6:	f383 8809 	msr	PSP, r3
  __ASM volatile ("MSR basepri, %0" : : "r" (basePri) : "memory");
 8001dea:	2300      	movs	r3, #0
 8001dec:	f383 8811 	msr	BASEPRI, r3
}
 8001df0:	4770      	bx	lr
 8001df2:	bf00      	nop
	...

08001e00 <main>:
  rccResetAPB1(0xFFFFFFFF);
 8001e00:	f04f 33ff 	mov.w	r3, #4294967295
 8001e04:	2200      	movs	r2, #0
        }
    }
}
static THD_WORKING_AREA(wa_stateMachine, 2048);

int main(void) {
 8001e06:	e92d 4880 	stmdb	sp!, {r7, fp, lr}
 8001e0a:	49c8      	ldr	r1, [pc, #800]	@ (800212c <main+0x32c>)
 8001e0c:	b089      	sub	sp, #36	@ 0x24
 8001e0e:	690c      	ldr	r4, [r1, #16]
 8001e10:	610b      	str	r3, [r1, #16]
 8001e12:	690e      	ldr	r6, [r1, #16]
 8001e14:	610a      	str	r2, [r1, #16]
 8001e16:	690e      	ldr	r6, [r1, #16]
  NVIC->__IPR[_IP_IDX(n)] = (NVIC->__IPR[_IP_IDX(n)] & ~(0xFFU << _BIT_SHIFT(n))) |
                            (NVIC_PRIORITY_MASK(prio) << _BIT_SHIFT(n));
#else
  NVIC->__IPR[n] = NVIC_PRIORITY_MASK(prio);
#endif
  NVIC->__ICPR[n >> 5U] = 1U << (n & 0x1FU);
 8001e18:	f44f 7480 	mov.w	r4, #256	@ 0x100
  rccResetAPB2(0xFFFFFFFF);
 8001e1c:	68ce      	ldr	r6, [r1, #12]
 8001e1e:	4dc4      	ldr	r5, [pc, #784]	@ (8002130 <main+0x330>)
 8001e20:	60cb      	str	r3, [r1, #12]
 8001e22:	68cb      	ldr	r3, [r1, #12]
  NVIC->__IPR[n] = NVIC_PRIORITY_MASK(prio);
 8001e24:	2060      	movs	r0, #96	@ 0x60
 8001e26:	60ca      	str	r2, [r1, #12]
  NVIC->__ICPR[n >> 5U] = 1U << (n & 0x1FU);
 8001e28:	f04f 0940 	mov.w	r9, #64	@ 0x40
 8001e2c:	f04f 0880 	mov.w	r8, #128	@ 0x80
 8001e30:	f44f 7e00 	mov.w	lr, #512	@ 0x200
 8001e34:	f44f 6c80 	mov.w	ip, #1024	@ 0x400
 8001e38:	f44f 0700 	mov.w	r7, #8388608	@ 0x800000
 8001e3c:	68cb      	ldr	r3, [r1, #12]
  rccEnablePWRInterface(true);
 8001e3e:	462b      	mov	r3, r5
 8001e40:	69ce      	ldr	r6, [r1, #28]
  PWR->CR |= PWR_CR_DBP;
 8001e42:	f8df a2f0 	ldr.w	sl, [pc, #752]	@ 8002134 <main+0x334>
  rccEnablePWRInterface(true);
 8001e46:	f046 5680 	orr.w	r6, r6, #268435456	@ 0x10000000
 8001e4a:	61ce      	str	r6, [r1, #28]
 8001e4c:	69ce      	ldr	r6, [r1, #28]
  rccEnableBKPInterface(true);
 8001e4e:	69ce      	ldr	r6, [r1, #28]
 8001e50:	f046 6600 	orr.w	r6, r6, #134217728	@ 0x8000000
 8001e54:	61ce      	str	r6, [r1, #28]
 8001e56:	69c9      	ldr	r1, [r1, #28]
  PWR->CR |= PWR_CR_DBP;
 8001e58:	f8da 6000 	ldr.w	r6, [sl]
  NVIC->__IPR[n] = NVIC_PRIORITY_MASK(prio);
 8001e5c:	49b6      	ldr	r1, [pc, #728]	@ (8002138 <main+0x338>)
 8001e5e:	4326      	orrs	r6, r4
 8001e60:	f8ca 6000 	str.w	r6, [sl]
 8001e64:	f881 0306 	strb.w	r0, [r1, #774]	@ 0x306
  NVIC->__ICPR[n >> 5U] = 1U << (n & 0x1FU);
 8001e68:	f8c1 9180 	str.w	r9, [r1, #384]	@ 0x180
  NVIC->__ISER[n >> 5U] = 1U << (n & 0x1FU);
 8001e6c:	f8c1 9000 	str.w	r9, [r1]
  NVIC->__IPR[n] = NVIC_PRIORITY_MASK(prio);
 8001e70:	f881 0307 	strb.w	r0, [r1, #775]	@ 0x307
  NVIC->__ICPR[n >> 5U] = 1U << (n & 0x1FU);
 8001e74:	f8c1 8180 	str.w	r8, [r1, #384]	@ 0x180
  NVIC->__ISER[n >> 5U] = 1U << (n & 0x1FU);
 8001e78:	f8c1 8000 	str.w	r8, [r1]
  NVIC->__IPR[n] = NVIC_PRIORITY_MASK(prio);
 8001e7c:	f881 0308 	strb.w	r0, [r1, #776]	@ 0x308
  NVIC->__ICPR[n >> 5U] = 1U << (n & 0x1FU);
 8001e80:	f8c1 4180 	str.w	r4, [r1, #384]	@ 0x180
  NVIC->__ISER[n >> 5U] = 1U << (n & 0x1FU);
 8001e84:	600c      	str	r4, [r1, #0]
  NVIC->__IPR[n] = NVIC_PRIORITY_MASK(prio);
 8001e86:	f881 0309 	strb.w	r0, [r1, #777]	@ 0x309
  NVIC->__ICPR[n >> 5U] = 1U << (n & 0x1FU);
 8001e8a:	f8c1 e180 	str.w	lr, [r1, #384]	@ 0x180
  NVIC->__ISER[n >> 5U] = 1U << (n & 0x1FU);
 8001e8e:	f8c1 e000 	str.w	lr, [r1]
  NVIC->__IPR[n] = NVIC_PRIORITY_MASK(prio);
 8001e92:	f881 030a 	strb.w	r0, [r1, #778]	@ 0x30a
  NVIC->__ICPR[n >> 5U] = 1U << (n & 0x1FU);
 8001e96:	f8c1 c180 	str.w	ip, [r1, #384]	@ 0x180
  NVIC->__ISER[n >> 5U] = 1U << (n & 0x1FU);
 8001e9a:	f8c1 c000 	str.w	ip, [r1]
  NVIC->__IPR[n] = NVIC_PRIORITY_MASK(prio);
 8001e9e:	f881 0317 	strb.w	r0, [r1, #791]	@ 0x317
  NVIC->__ICPR[n >> 5U] = 1U << (n & 0x1FU);
 8001ea2:	f8c1 7180 	str.w	r7, [r1, #384]	@ 0x180
  NVIC->__ISER[n >> 5U] = 1U << (n & 0x1FU);
 8001ea6:	600f      	str	r7, [r1, #0]
  NVIC->__IPR[n] = NVIC_PRIORITY_MASK(prio);
 8001ea8:	f881 0328 	strb.w	r0, [r1, #808]	@ 0x328
  NVIC->__ICPR[n >> 5U] = 1U << (n & 0x1FU);
 8001eac:	f8c1 4184 	str.w	r4, [r1, #388]	@ 0x184
  NVIC->__ISER[n >> 5U] = 1U << (n & 0x1FU);
 8001eb0:	604c      	str	r4, [r1, #4]
void _pal_lld_init(const PALConfig *config) {
 8001eb2:	1929      	adds	r1, r5, r4
  qp->prev = qp;
 8001eb4:	e9c3 3300 	strd	r3, r3, [r3]
    _pal_init_event(i);
 8001eb8:	e9c3 2202 	strd	r2, r2, [r3, #8]
  for (i = 0; i < 16; i++) {
 8001ebc:	3310      	adds	r3, #16
 8001ebe:	4299      	cmp	r1, r3
 8001ec0:	d1f8      	bne.n	8001eb4 <main+0xb4>
  GPIOA->CRH = config->PAData.crh;
 8001ec2:	f04f 3388 	mov.w	r3, #2290649224	@ 0x88888888
  GPIOA->ODR = config->PAData.odr;
 8001ec6:	f04f 31ff 	mov.w	r1, #4294967295
#endif /* OSAL_ST_MODE == OSAL_ST_MODE_FREERUNNING */

#if OSAL_ST_MODE == OSAL_ST_MODE_PERIODIC
  /* Periodic systick mode, the Cortex-Mx internal systick timer is used
     in this mode.*/
  SysTick->LOAD = (SYSTICK_CK / OSAL_ST_FREQUENCY) - 1;
 8001eca:	f04f 20e0 	mov.w	r0, #3758153728	@ 0xe000e000
 8001ece:	f648 4a9f 	movw	sl, #35999	@ 0x8c9f
  SysTick->VAL = 0;
  SysTick->CTRL = SysTick_CTRL_CLKSOURCE_Msk |
 8001ed2:	f04f 0907 	mov.w	r9, #7
#if defined(__CORE_CM0_H_GENERIC) || defined(__CORE_CM0PLUS_H_GENERIC) ||   \
    defined(__CORE_CM23_H_GENERIC)
  SCB->__SHPR[_SHP_IDX(handler)] = (SCB->__SHPR[_SHP_IDX(handler)] & ~(0xFFU << _BIT_SHIFT(handler))) |
                                   (NVIC_PRIORITY_MASK(prio) << _BIT_SHIFT(handler));
#else
  SCB->__SHPR[handler] = NVIC_PRIORITY_MASK(prio);
 8001ed6:	f04f 0880 	mov.w	r8, #128	@ 0x80
  rccEnableAPB2(APB2_EN_MASK, true);
 8001eda:	4e94      	ldr	r6, [pc, #592]	@ (800212c <main+0x32c>)
  GPIOC->ODR = config->PCData.odr;
 8001edc:	f8df c25c 	ldr.w	ip, [pc, #604]	@ 800213c <main+0x33c>
  rccEnableAPB2(APB2_EN_MASK, true);
 8001ee0:	69b7      	ldr	r7, [r6, #24]
  GPIOC->CRH = config->PCData.crh;
 8001ee2:	f8df b25c 	ldr.w	fp, [pc, #604]	@ 8002140 <main+0x340>
  rccEnableAPB2(APB2_EN_MASK, true);
 8001ee6:	f047 077d 	orr.w	r7, r7, #125	@ 0x7d
 8001eea:	61b7      	str	r7, [r6, #24]
 8001eec:	69b6      	ldr	r6, [r6, #24]
  GPIOA->ODR = config->PAData.odr;
 8001eee:	4e95      	ldr	r6, [pc, #596]	@ (8002144 <main+0x344>)
  GPIOD->ODR = config->PDData.odr;
 8001ef0:	4f95      	ldr	r7, [pc, #596]	@ (8002148 <main+0x348>)
  GPIOA->ODR = config->PAData.odr;
 8001ef2:	60f1      	str	r1, [r6, #12]
  GPIOA->CRH = config->PAData.crh;
 8001ef4:	6073      	str	r3, [r6, #4]
  GPIOA->CRL = config->PAData.crl;
 8001ef6:	6033      	str	r3, [r6, #0]
  GPIOB->ODR = config->PBData.odr;
 8001ef8:	f8c6 140c 	str.w	r1, [r6, #1036]	@ 0x40c
  GPIOB->CRH = config->PBData.crh;
 8001efc:	f8c6 3404 	str.w	r3, [r6, #1028]	@ 0x404
  GPIOB->CRL = config->PBData.crl;
 8001f00:	f8c6 3400 	str.w	r3, [r6, #1024]	@ 0x400
  GPIOC->ODR = config->PCData.odr;
 8001f04:	f8cc 100c 	str.w	r1, [ip, #12]
  GPIOC->CRH = config->PCData.crh;
 8001f08:	f8cc b004 	str.w	fp, [ip, #4]
  GPIOC->CRL = config->PCData.crl;
 8001f0c:	f8cc 3000 	str.w	r3, [ip]
  GPIOD->CRL = config->PDData.crl;
 8001f10:	f8df c238 	ldr.w	ip, [pc, #568]	@ 800214c <main+0x34c>
  GPIOB->ODR = config->PBData.odr;
 8001f14:	f506 6680 	add.w	r6, r6, #1024	@ 0x400
  GPIOD->ODR = config->PDData.odr;
 8001f18:	60f9      	str	r1, [r7, #12]
  GPIOD->CRH = config->PDData.crh;
 8001f1a:	607b      	str	r3, [r7, #4]
  GPIOD->CRL = config->PDData.crl;
 8001f1c:	f8c7 c000 	str.w	ip, [r7]
  GPIOE->ODR = config->PEData.odr;
 8001f20:	f8c6 1c0c 	str.w	r1, [r6, #3084]	@ 0xc0c
  GPIOE->CRH = config->PEData.crh;
 8001f24:	f8c6 3c04 	str.w	r3, [r6, #3076]	@ 0xc04
  GPIOE->CRL = config->PEData.crl;
 8001f28:	f8c6 3c00 	str.w	r3, [r6, #3072]	@ 0xc00
 8001f2c:	4b88      	ldr	r3, [pc, #544]	@ (8002150 <main+0x350>)
  SysTick->LOAD = (SYSTICK_CK / OSAL_ST_FREQUENCY) - 1;
 8001f2e:	f8c0 a014 	str.w	sl, [r0, #20]
  SysTick->VAL = 0;
 8001f32:	6182      	str	r2, [r0, #24]
  SysTick->CTRL = SysTick_CTRL_CLKSOURCE_Msk |
 8001f34:	f8c0 9010 	str.w	r9, [r0, #16]
 8001f38:	f883 8023 	strb.w	r8, [r3, #35]	@ 0x23
  tmp->cumulative = (rttime_t)0;
 8001f3c:	2000      	movs	r0, #0
  tmp->worst      = (rtcnt_t)0;
 8001f3e:	e9cd 1202 	strd	r1, r2, [sp, #8]
  tmp->cumulative = (rttime_t)0;
 8001f42:	2100      	movs	r1, #0
 */
void chSysInit(void) {
  unsigned i;

  /* System object initialization.*/
  ch_system.state = ch_sys_initializing;
 8001f44:	f04f 0e01 	mov.w	lr, #1
}
 8001f48:	2404      	movs	r4, #4
 8001f4a:	4f82      	ldr	r7, [pc, #520]	@ (8002154 <main+0x354>)
  tmp->cumulative = (rttime_t)0;
 8001f4c:	e9cd 0106 	strd	r0, r1, [sp, #24]
  tmp->n          = (ucnt_t)0;
 8001f50:	9205      	str	r2, [sp, #20]
 8001f52:	f887 e000 	strb.w	lr, [r7]
  time_measurement_t tm;

  /* Time Measurement subsystem calibration, it does a null measurement
     and calculates the call overhead which is subtracted to real
     measurements.*/
  tcp->offset = (rtcnt_t)0;
 8001f56:	60ba      	str	r2, [r7, #8]
  chTMObjectInit(&tm);
  i = TM_CALIBRATION_LOOP;
  do {
    chTMStartMeasurementX(&tm);
 8001f58:	a802      	add	r0, sp, #8
 8001f5a:	f7fe f9c9 	bl	80002f0 <chTMStartMeasurementX>
    chTMStopMeasurementX(&tm);
 8001f5e:	f7fe f9cf 	bl	8000300 <chTMStopMeasurementX>
    i--;
  } while (i > 0U);
 8001f62:	3c01      	subs	r4, #1
 8001f64:	d1f8      	bne.n	8001f58 <main+0x158>
  tcp->offset = tm.best;
 8001f66:	9a02      	ldr	r2, [sp, #8]
  ch_memcore.basemem = __heap_base__;
 8001f68:	4b7b      	ldr	r3, [pc, #492]	@ (8002158 <main+0x358>)
 8001f6a:	60ba      	str	r2, [r7, #8]
 8001f6c:	4a7b      	ldr	r2, [pc, #492]	@ (800215c <main+0x35c>)
             (size >= sizeof(void *)) &&
             (align >= PORT_NATURAL_ALIGN) &&
             MEM_IS_VALID_ALIGNMENT(align));

  mp->next = NULL;
  mp->object_size = size;
 8001f6e:	2114      	movs	r1, #20
 8001f70:	601a      	str	r2, [r3, #0]
  ch_memcore.topmem  = __heap_end__;
 8001f72:	4a7b      	ldr	r2, [pc, #492]	@ (8002160 <main+0x360>)
 8001f74:	2630      	movs	r6, #48	@ 0x30
 8001f76:	605a      	str	r2, [r3, #4]
 *
 * @notapi
 */
void __heap_init(void) {

  default_heap.provider = chCoreAllocAlignedWithOffset;
 8001f78:	4b7a      	ldr	r3, [pc, #488]	@ (8002164 <main+0x364>)
 8001f7a:	4a7b      	ldr	r2, [pc, #492]	@ (8002168 <main+0x368>)
void chMtxObjectInit(mutex_t *mp) {

  chDbgCheck(mp != NULL);

  ch_queue_init(&mp->queue);
  mp->owner = NULL;
 8001f7c:	615c      	str	r4, [r3, #20]
 8001f7e:	e9c3 2400 	strd	r2, r4, [r3]
  qp->next = qp;
 8001f82:	f103 020c 	add.w	r2, r3, #12
 8001f86:	e9c3 4202 	strd	r4, r2, [r3, #8]
  qp->prev = qp;
 8001f8a:	611a      	str	r2, [r3, #16]
  mp->align = align;
 8001f8c:	2304      	movs	r3, #4
  qp->next = qp;
 8001f8e:	4a77      	ldr	r2, [pc, #476]	@ (800216c <main+0x36c>)
 8001f90:	e9c2 1306 	strd	r1, r3, [r2, #24]
  mp->object_size = size;
 8001f94:	211c      	movs	r1, #28
  mp->align = align;
 8001f96:	6353      	str	r3, [r2, #52]	@ 0x34
  } while ((c != (char)0) && (i > 0U));
}

static inline void dyn_list_init(dyn_list_t *dlp) {

  dlp->next = (dyn_element_t *)dlp;
 8001f98:	f102 033c 	add.w	r3, r2, #60	@ 0x3c
 8001f9c:	63d3      	str	r3, [r2, #60]	@ 0x3c
  mp->object_size = size;
 8001f9e:	6311      	str	r1, [r2, #48]	@ 0x30
 8001fa0:	f102 0340 	add.w	r3, r2, #64	@ 0x40
  mp->provider = provider;
 8001fa4:	4972      	ldr	r1, [pc, #456]	@ (8002170 <main+0x370>)
 8001fa6:	6413      	str	r3, [r2, #64]	@ 0x40
 8001fa8:	f102 0344 	add.w	r3, r2, #68	@ 0x44
 8001fac:	6453      	str	r3, [r2, #68]	@ 0x44
 8001fae:	6211      	str	r1, [r2, #32]
  core_id = port_get_core_id();
#else
  core_id = 0U;
#endif
  chDbgAssert(ch_system.instances[core_id] == NULL, "instance already registered");
  ch_system.instances[core_id] = oip;
 8001fb0:	4b70      	ldr	r3, [pc, #448]	@ (8002174 <main+0x374>)
 8001fb2:	6391      	str	r1, [r2, #56]	@ 0x38

  /* Core associated to this instance.*/
  oip->core_id = core_id;

  /* Keeping a reference to the configuration data.*/
  oip->config = oicp;
 8001fb4:	4970      	ldr	r1, [pc, #448]	@ (8002178 <main+0x378>)
  qp->prev = qp;
 8001fb6:	e9c2 2200 	strd	r2, r2, [r2]
 8001fba:	6399      	str	r1, [r3, #56]	@ 0x38
 8001fbc:	f102 0110 	add.w	r1, r2, #16
 8001fc0:	6111      	str	r1, [r2, #16]
 8001fc2:	f102 0124 	add.w	r1, r2, #36	@ 0x24
 8001fc6:	6251      	str	r1, [r2, #36]	@ 0x24
 8001fc8:	f102 0128 	add.w	r1, r2, #40	@ 0x28
 8001fcc:	6094      	str	r4, [r2, #8]
  mp->next = NULL;
 8001fce:	6154      	str	r4, [r2, #20]
 8001fd0:	62d4      	str	r4, [r2, #44]	@ 0x2c
  ch_system.instances[core_id] = oip;
 8001fd2:	607b      	str	r3, [r7, #4]
  oip->core_id = core_id;
 8001fd4:	631c      	str	r4, [r3, #48]	@ 0x30
 8001fd6:	6291      	str	r1, [r2, #40]	@ 0x28
 8001fd8:	f386 8811 	msr	BASEPRI, r6
  __ASM volatile ("cpsie i" : : : "memory");
 8001fdc:	b662      	cpsie	i
{
  uint32_t reg_value;
  uint32_t PriorityGroupTmp = (PriorityGroup & (uint32_t)0x07UL);             /* only values 0..7 are used          */

  reg_value  =  SCB->AIRCR;                                                   /* read old register configuration    */
  reg_value &= ~((uint32_t)(SCB_AIRCR_VECTKEY_Msk | SCB_AIRCR_PRIGROUP_Msk)); /* clear bits to change               */
 8001fde:	f64f 0cff 	movw	ip, #63743	@ 0xf8ff
  tp->epending          = (eventmask_t)0;
 8001fe2:	e9c3 441d 	strd	r4, r4, [r3, #116]	@ 0x74
  reg_value  =  SCB->AIRCR;                                                   /* read old register configuration    */
 8001fe6:	4a5a      	ldr	r2, [pc, #360]	@ (8002150 <main+0x350>)
  pqp->prio = (tprio_t)0;
 8001fe8:	609c      	str	r4, [r3, #8]
 *
 * @notapi
 */
static inline void __rfcu_object_init(rfcu_t *rfcup) {

  rfcup->mask = (rfcu_mask_t)0;
 8001fea:	635c      	str	r4, [r3, #52]	@ 0x34
 8001fec:	68d0      	ldr	r0, [r2, #12]
  reg_value  =  (reg_value                                   |
 8001fee:	4963      	ldr	r1, [pc, #396]	@ (800217c <main+0x37c>)
  reg_value &= ~((uint32_t)(SCB_AIRCR_VECTKEY_Msk | SCB_AIRCR_PRIGROUP_Msk)); /* clear bits to change               */
 8001ff0:	ea00 000c 	and.w	r0, r0, ip
  tp->refs              = (trefs_t)1;
 8001ff4:	f04f 0c01 	mov.w	ip, #1
  reg_value  =  (reg_value                                   |
 8001ff8:	4301      	orrs	r1, r0
  tp->owner             = oip;
 8001ffa:	655b      	str	r3, [r3, #84]	@ 0x54
  oip->rlist.current = __thd_object_init(oip, &oip->mainthread,
                                         "idle", IDLEPRIO);
#endif

#if (CH_DBG_ENABLE_STACK_CHECK == TRUE) || (CH_CFG_USE_DYNAMIC == TRUE)
  oip->rlist.current->wabase = oicp->mainthread_base;
 8001ffc:	65dc      	str	r4, [r3, #92]	@ 0x5c
                ((uint32_t)0x5FAUL << SCB_AIRCR_VECTKEY_Pos) |
                (PriorityGroupTmp << SCB_AIRCR_PRIGROUP_Pos) );               /* Insert write key and priority group */
  SCB->AIRCR =  reg_value;
 8001ffe:	60d1      	str	r1, [r2, #12]
  CoreDebug->DEMCR |= CoreDebug_DEMCR_TRCENA_Msk;
 8002000:	f8d2 10fc 	ldr.w	r1, [r2, #252]	@ 0xfc
  DWT->CTRL |= DWT_CTRL_CYCCNTENA_Msk;
 8002004:	485e      	ldr	r0, [pc, #376]	@ (8002180 <main+0x380>)
  CoreDebug->DEMCR |= CoreDebug_DEMCR_TRCENA_Msk;
 8002006:	f041 7180 	orr.w	r1, r1, #16777216	@ 0x1000000
 800200a:	f8c2 10fc 	str.w	r1, [r2, #252]	@ 0xfc
  DWT->CTRL |= DWT_CTRL_CYCCNTENA_Msk;
 800200e:	6801      	ldr	r1, [r0, #0]
  {
    NVIC->IP[((uint32_t)IRQn)]               = (uint8_t)((priority << (8U - __NVIC_PRIO_BITS)) & (uint32_t)0xFFUL);
  }
  else
  {
    SCB->SHP[(((uint32_t)IRQn) & 0xFUL)-4UL] = (uint8_t)((priority << (8U - __NVIC_PRIO_BITS)) & (uint32_t)0xFFUL);
 8002010:	f04f 0e20 	mov.w	lr, #32
 8002014:	ea41 010c 	orr.w	r1, r1, ip
 8002018:	6001      	str	r1, [r0, #0]
  dlhp->delta = (sysinterval_t)-1;
 800201a:	f04f 31ff 	mov.w	r1, #4294967295
 800201e:	f882 e01f 	strb.w	lr, [r2, #31]
 8002022:	f882 6022 	strb.w	r6, [r2, #34]	@ 0x22
 8002026:	6199      	str	r1, [r3, #24]
  tp->name              = name;
 8002028:	4956      	ldr	r1, [pc, #344]	@ (8002184 <main+0x384>)
 */
static inline void __vt_object_init(virtual_timers_list_t *vtlp) {

  ch_dlist_init(&vtlp->dlist);
#if CH_CFG_ST_TIMEDELTA == 0
  vtlp->systime = (systime_t)0;
 800202a:	839c      	strh	r4, [r3, #28]
 800202c:	6599      	str	r1, [r3, #88]	@ 0x58
  dlhp->next  = dlhp;
 800202e:	f103 0110 	add.w	r1, r3, #16
  dlhp->prev  = dlhp;
 8002032:	e9c3 1104 	strd	r1, r1, [r3, #16]
  qp->next = qp;
 8002036:	f103 016c 	add.w	r1, r3, #108	@ 0x6c
  return currcore->vtlist.systime;
 800203a:	8b9a      	ldrh	r2, [r3, #28]
  qp->prev = qp;
 800203c:	e9c3 111b 	strd	r1, r1, [r3, #108]	@ 0x6c
  lp->next = lp;
 8002040:	f103 0168 	add.w	r1, r3, #104	@ 0x68
 8002044:	6699      	str	r1, [r3, #104]	@ 0x68
  oip->rlist.current = __thd_object_init(oip, &oip->mainthread,
 8002046:	f103 013c 	add.w	r1, r3, #60	@ 0x3c
 800204a:	f8ad 2006 	strh.w	r2, [sp, #6]
 800204e:	60d9      	str	r1, [r3, #12]
  tp->hdr.pqueue.prio   = prio;
 8002050:	2280      	movs	r2, #128	@ 0x80
#else /* CH_CFG_ST_TIMEDELTA > 0 */
  vtlp->lasttime = (systime_t)0;
#endif /* CH_CFG_ST_TIMEDELTA > 0 */
#if CH_CFG_USE_TIMESTAMP == TRUE
  vtlp->laststamp = (systimestamp_t)chVTGetSystemTimeX();
 8002052:	4621      	mov	r1, r4
 8002054:	f8bd 0006 	ldrh.w	r0, [sp, #6]
  p->prev       = qp->prev;
 8002058:	f103 0b28 	add.w	fp, r3, #40	@ 0x28
  p->prev->next = p;
 800205c:	f103 0a4c 	add.w	sl, r3, #76	@ 0x4c
 8002060:	645a      	str	r2, [r3, #68]	@ 0x44
  tp->realprio          = prio;
 8002062:	67da      	str	r2, [r3, #124]	@ 0x7c
  tp->refs              = (trefs_t)1;
 8002064:	f883 c062 	strb.w	ip, [r3, #98]	@ 0x62
#endif

  /* Setting up the caller as current thread.*/
  oip->rlist.current->state = CH_STATE_CURRENT;
 8002068:	f8a3 c060 	strh.w	ip, [r3, #96]	@ 0x60
  p->prev       = qp->prev;
 800206c:	f8c3 b050 	str.w	fp, [r3, #80]	@ 0x50
  p->prev->next = p;
 8002070:	f8c3 a028 	str.w	sl, [r3, #40]	@ 0x28
 8002074:	e9c3 0108 	strd	r0, r1, [r3, #32]

  /* Initializing default OS instance.*/
  chInstanceObjectInit(&ch0, &ch_core0_cfg);

  /* It is alive now.*/
  ch_system.state = ch_sys_running;
 8002078:	f04f 0102 	mov.w	r1, #2
  tp->wabase = tdp->wbase;
 800207c:	4a42      	ldr	r2, [pc, #264]	@ (8002188 <main+0x388>)
 800207e:	7039      	strb	r1, [r7, #0]
  PORT_SETUP_CONTEXT(tp, tdp->wbase, tp, tdp->funcp, tdp->arg);
 8002080:	f102 01c4 	add.w	r1, r2, #196	@ 0xc4
 8002084:	f8c2 10f4 	str.w	r1, [r2, #244]	@ 0xf4
 8002088:	4940      	ldr	r1, [pc, #256]	@ (800218c <main+0x38c>)
 800208a:	f102 09f8 	add.w	r9, r2, #248	@ 0xf8
 800208e:	f8c2 10c4 	str.w	r1, [r2, #196]	@ 0xc4
 8002092:	493f      	ldr	r1, [pc, #252]	@ (8002190 <main+0x390>)
  qp->next = qp;
 8002094:	f502 788c 	add.w	r8, r2, #280	@ 0x118
 8002098:	f8c2 10e4 	str.w	r1, [r2, #228]	@ 0xe4
  tp->name              = name;
 800209c:	493d      	ldr	r1, [pc, #244]	@ (8002194 <main+0x394>)
  p->prev->next = p;
 800209e:	f102 0ee8 	add.w	lr, r2, #232	@ 0xe8
 80020a2:	f8c2 1104 	str.w	r1, [r2, #260]	@ 0x104
  lp->next = lp;
 80020a6:	f502 718a 	add.w	r1, r2, #276	@ 0x114
  p->prev       = qp->prev;
 80020aa:	e9c2 ba3e 	strd	fp, sl, [r2, #248]	@ 0xf8
  tp->epending          = (eventmask_t)0;
 80020ae:	e9c2 4448 	strd	r4, r4, [r2, #288]	@ 0x120
  qp->prev = qp;
 80020b2:	e9c2 8846 	strd	r8, r8, [r2, #280]	@ 0x118
  p->prev       = pqp->prev;
 80020b6:	e9c2 333a 	strd	r3, r3, [r2, #232]	@ 0xe8
  pqp->prev     = p;
 80020ba:	e9c3 ee00 	strd	lr, lr, [r3]
 *
 * @notapi
 */
static inline void __dbg_object_init(system_debug_t *sdp) {

  sdp->panic_msg = NULL;
 80020be:	f8c3 4084 	str.w	r4, [r3, #132]	@ 0x84
  tp->wabase = tdp->wbase;
 80020c2:	f8c2 2108 	str.w	r2, [r2, #264]	@ 0x108
  lp->next = lp;
 80020c6:	f8c2 1114 	str.w	r1, [r2, #276]	@ 0x114
  PORT_SETUP_CONTEXT(tp, tdp->wbase, tp, tdp->funcp, tdp->arg);
 80020ca:	f8c2 40c8 	str.w	r4, [r2, #200]	@ 0xc8
  tp->hdr.pqueue.prio   = prio;
 80020ce:	f8c2 c0f0 	str.w	ip, [r2, #240]	@ 0xf0
  tp->owner             = oip;
 80020d2:	f8c2 3100 	str.w	r3, [r2, #256]	@ 0x100
  tp->realprio          = prio;
 80020d6:	f8c2 c128 	str.w	ip, [r2, #296]	@ 0x128
  tp->refs              = (trefs_t)1;
 80020da:	f882 c10e 	strb.w	ip, [r2, #270]	@ 0x10e
  p->prev->next = p;
 80020de:	f8c3 904c 	str.w	r9, [r3, #76]	@ 0x4c
  qp->prev      = p;
 80020e2:	f8c3 902c 	str.w	r9, [r3, #44]	@ 0x2c
 80020e6:	f8a2 410c 	strh.w	r4, [r2, #268]	@ 0x10c
  __ASM volatile ("MSR basepri, %0" : : "r" (basePri) : "memory");
 80020ea:	f384 8811 	msr	BASEPRI, r4

    halInit();
    chSysInit(); 
    
    /* pinos de saida */
    palSetGroupMode(IOPORT1, GPIO_OUTPUT_MASK, 0, PAL_MODE_OUTPUT_PUSHPULL);
 80020ee:	4f15      	ldr	r7, [pc, #84]	@ (8002144 <main+0x344>)
 80020f0:	2206      	movs	r2, #6
 80020f2:	4638      	mov	r0, r7
 80020f4:	f240 11ff 	movw	r1, #511	@ 0x1ff
 80020f8:	f7fe f8ba 	bl	8000270 <_pal_lld_setgroupmode>
    /* pinos de entrada */
    palSetGroupMode(IOPORT2, GPIO_INPUT_MASK, 0, PAL_MODE_INPUT_PULLUP);
 80020fc:	2203      	movs	r2, #3
 80020fe:	f44f 4170 	mov.w	r1, #61440	@ 0xf000
 8002102:	f507 6080 	add.w	r0, r7, #1024	@ 0x400
 8002106:	f7fe f8b3 	bl	8000270 <_pal_lld_setgroupmode>
    /* desliga todos os leds */
    palWriteGroup(IOPORT1, GPIO_OUTPUT_MASK, 0, 0x0000);
 800210a:	4b23      	ldr	r3, [pc, #140]	@ (8002198 <main+0x398>)
 800210c:	613b      	str	r3, [r7, #16]
 800210e:	f386 8811 	msr	BASEPRI, r6
    /* habilita interrupoes nos botoes de entrada */
    palEnablePadEvent(IOPORT2, BTN_START, PAL_EVENT_MODE_FALLING_EDGE);
 8002112:	200c      	movs	r0, #12
 8002114:	f7fe f974 	bl	8000400 <_pal_lld_enablepadevent.constprop.0>
 8002118:	f384 8811 	msr	BASEPRI, r4
 800211c:	f386 8811 	msr	BASEPRI, r6
    palEnablePadEvent(IOPORT2, BTN_HIGH_WATERMARK, PAL_EVENT_MODE_FALLING_EDGE);
 8002120:	200d      	movs	r0, #13
 8002122:	f7fe f96d 	bl	8000400 <_pal_lld_enablepadevent.constprop.0>
 8002126:	f384 8811 	msr	BASEPRI, r4
 800212a:	e037      	b.n	800219c <main+0x39c>
 800212c:	40021000 	.word	0x40021000
 8002130:	20001cc0 	.word	0x20001cc0
 8002134:	40007000 	.word	0x40007000
 8002138:	e000e100 	.word	0xe000e100
 800213c:	40011000 	.word	0x40011000
 8002140:	88388888 	.word	0x88388888
 8002144:	40010800 	.word	0x40010800
 8002148:	40011400 	.word	0x40011400
 800214c:	88888844 	.word	0x88888844
 8002150:	e000ed00 	.word	0xe000ed00
 8002154:	20001c28 	.word	0x20001c28
 8002158:	20001c20 	.word	0x20001c20
 800215c:	20001dc0 	.word	0x20001dc0
 8002160:	20005000 	.word	0x20005000
 8002164:	20000930 	.word	0x20000930
 8002168:	08000351 	.word	0x08000351
 800216c:	2000094c 	.word	0x2000094c
 8002170:	08000391 	.word	0x08000391
 8002174:	20001c38 	.word	0x20001c38
 8002178:	08002334 	.word	0x08002334
 800217c:	05fa0300 	.word	0x05fa0300
 8002180:	e0001000 	.word	0xe0001000
 8002184:	08002308 	.word	0x08002308
 8002188:	20000800 	.word	0x20000800
 800218c:	080002e1 	.word	0x080002e1
 8002190:	08000251 	.word	0x08000251
 8002194:	080022fc 	.word	0x080022fc
 8002198:	01ff0000 	.word	0x01ff0000
 800219c:	f386 8811 	msr	BASEPRI, r6
    palEnablePadEvent(IOPORT2, BTN_LOW_WATERMARK, PAL_EVENT_MODE_FALLING_EDGE);
 80021a0:	200e      	movs	r0, #14
 80021a2:	f7fe f92d 	bl	8000400 <_pal_lld_enablepadevent.constprop.0>
 80021a6:	f384 8811 	msr	BASEPRI, r4
 80021aa:	f386 8811 	msr	BASEPRI, r6
    palEnablePadEvent(IOPORT2, BTN_OPEN_LID, PAL_EVENT_MODE_FALLING_EDGE);
 80021ae:	200f      	movs	r0, #15
 80021b0:	f7fe f926 	bl	8000400 <_pal_lld_enablepadevent.constprop.0>
 80021b4:	f384 8811 	msr	BASEPRI, r4
 80021b8:	f386 8811 	msr	BASEPRI, r6
 */
void palSetPadCallbackI(ioportid_t port, iopadid_t pad,
                        palcallback_t cb, void *arg) {

  palevent_t *pep = pal_lld_get_pad_event(port, pad);
  pep->cb = cb;
 80021bc:	4b17      	ldr	r3, [pc, #92]	@ (800221c <main+0x41c>)
 80021be:	e9c5 3432 	strd	r3, r4, [r5, #200]	@ 0xc8
 80021c2:	f384 8811 	msr	BASEPRI, r4
 80021c6:	f386 8811 	msr	BASEPRI, r6
 80021ca:	4b15      	ldr	r3, [pc, #84]	@ (8002220 <main+0x420>)
 80021cc:	e9c5 3436 	strd	r3, r4, [r5, #216]	@ 0xd8
 80021d0:	f384 8811 	msr	BASEPRI, r4
 80021d4:	f386 8811 	msr	BASEPRI, r6
 80021d8:	4b12      	ldr	r3, [pc, #72]	@ (8002224 <main+0x424>)
 80021da:	e9c5 343a 	strd	r3, r4, [r5, #232]	@ 0xe8
 80021de:	f384 8811 	msr	BASEPRI, r4
 80021e2:	f386 8811 	msr	BASEPRI, r6
 80021e6:	4b10      	ldr	r3, [pc, #64]	@ (8002228 <main+0x428>)
 80021e8:	e9c5 343e 	strd	r3, r4, [r5, #248]	@ 0xf8
 80021ec:	f384 8811 	msr	BASEPRI, r4
  vtp->dlist.next = NULL;
 80021f0:	4a0e      	ldr	r2, [pc, #56]	@ (800222c <main+0x42c>)
 80021f2:	4b0f      	ldr	r3, [pc, #60]	@ (8002230 <main+0x430>)
 80021f4:	480f      	ldr	r0, [pc, #60]	@ (8002234 <main+0x434>)
 80021f6:	4910      	ldr	r1, [pc, #64]	@ (8002238 <main+0x438>)
 80021f8:	6014      	str	r4, [r2, #0]
 80021fa:	601c      	str	r4, [r3, #0]
 80021fc:	4a0f      	ldr	r2, [pc, #60]	@ (800223c <main+0x43c>)
 *
 * @init
 */
static inline void chEvtObjectInit(event_source_t *esp) {

  esp->next = (event_listener_t *)esp;
 80021fe:	4b10      	ldr	r3, [pc, #64]	@ (8002240 <main+0x440>)
 8002200:	6004      	str	r4, [r0, #0]
 8002202:	600c      	str	r4, [r1, #0]
    chVTObjectInit(&vt_rinse);
    chVTObjectInit(&vt_centrifuge);
    /* inicializa os event sources */
    chEvtObjectInit(&evt_src);

    thread_t* ptr_eventHandle = chThdCreateStatic(wa_eventHandle, sizeof(wa_eventHandle), NORMALPRIO + 1, eventHandle, NULL);
 8002204:	480f      	ldr	r0, [pc, #60]	@ (8002244 <main+0x444>)
 8002206:	4910      	ldr	r1, [pc, #64]	@ (8002248 <main+0x448>)
 8002208:	6014      	str	r4, [r2, #0]
 800220a:	601b      	str	r3, [r3, #0]
 800220c:	f7fe fbd8 	bl	80009c0 <chThdCreateStatic.constprop.0.isra.0>
    thread_t* ptr_stateMachine = chThdCreateStatic(wa_stateMachine, sizeof(wa_stateMachine), NORMALPRIO + 1, stateMachine, NULL);
 8002210:	490e      	ldr	r1, [pc, #56]	@ (800224c <main+0x44c>)
 8002212:	480f      	ldr	r0, [pc, #60]	@ (8002250 <main+0x450>)
 8002214:	f7fe fbd4 	bl	80009c0 <chThdCreateStatic.constprop.0.isra.0>
    
    while(1) {
 8002218:	e7fe      	b.n	8002218 <main+0x418>
 800221a:	bf00      	nop
 800221c:	080007d1 	.word	0x080007d1
 8002220:	080007f1 	.word	0x080007f1
 8002224:	08000811 	.word	0x08000811
 8002228:	08000831 	.word	0x08000831
 800222c:	20001bfc 	.word	0x20001bfc
 8002230:	20001bdc 	.word	0x20001bdc
 8002234:	20001bbc 	.word	0x20001bbc
 8002238:	20001b9c 	.word	0x20001b9c
 800223c:	20001b7c 	.word	0x20001b7c
 8002240:	20001c1c 	.word	0x20001c1c
 8002244:	20001288 	.word	0x20001288
 8002248:	080012d1 	.word	0x080012d1
 800224c:	08000871 	.word	0x08000871
 8002250:	20000998 	.word	0x20000998

08002254 <memset>:
 8002254:	b570      	push	{r4, r5, r6, lr}
 8002256:	0786      	lsls	r6, r0, #30
 8002258:	d047      	beq.n	80022ea <memset+0x96>
 800225a:	1e54      	subs	r4, r2, #1
 800225c:	2a00      	cmp	r2, #0
 800225e:	d03e      	beq.n	80022de <memset+0x8a>
 8002260:	4603      	mov	r3, r0
 8002262:	b2ca      	uxtb	r2, r1
 8002264:	e001      	b.n	800226a <memset+0x16>
 8002266:	3c01      	subs	r4, #1
 8002268:	d339      	bcc.n	80022de <memset+0x8a>
 800226a:	f803 2b01 	strb.w	r2, [r3], #1
 800226e:	079d      	lsls	r5, r3, #30
 8002270:	d1f9      	bne.n	8002266 <memset+0x12>
 8002272:	2c03      	cmp	r4, #3
 8002274:	d92c      	bls.n	80022d0 <memset+0x7c>
 8002276:	b2cd      	uxtb	r5, r1
 8002278:	eb05 2505 	add.w	r5, r5, r5, lsl #8
 800227c:	2c0f      	cmp	r4, #15
 800227e:	461a      	mov	r2, r3
 8002280:	eb05 4505 	add.w	r5, r5, r5, lsl #16
 8002284:	d934      	bls.n	80022f0 <memset+0x9c>
 8002286:	f1a4 0c10 	sub.w	ip, r4, #16
 800228a:	f02c 060f 	bic.w	r6, ip, #15
 800228e:	f103 0e10 	add.w	lr, r3, #16
 8002292:	44b6      	add	lr, r6
 8002294:	ea4f 1c1c 	mov.w	ip, ip, lsr #4
 8002298:	e9c2 5500 	strd	r5, r5, [r2]
 800229c:	e9c2 5502 	strd	r5, r5, [r2, #8]
 80022a0:	3210      	adds	r2, #16
 80022a2:	4572      	cmp	r2, lr
 80022a4:	d1f8      	bne.n	8002298 <memset+0x44>
 80022a6:	f10c 0201 	add.w	r2, ip, #1
 80022aa:	f014 0f0c 	tst.w	r4, #12
 80022ae:	eb03 1202 	add.w	r2, r3, r2, lsl #4
 80022b2:	f004 0c0f 	and.w	ip, r4, #15
 80022b6:	d013      	beq.n	80022e0 <memset+0x8c>
 80022b8:	f1ac 0304 	sub.w	r3, ip, #4
 80022bc:	f023 0303 	bic.w	r3, r3, #3
 80022c0:	3304      	adds	r3, #4
 80022c2:	4413      	add	r3, r2
 80022c4:	f842 5b04 	str.w	r5, [r2], #4
 80022c8:	4293      	cmp	r3, r2
 80022ca:	d1fb      	bne.n	80022c4 <memset+0x70>
 80022cc:	f00c 0403 	and.w	r4, ip, #3
 80022d0:	b12c      	cbz	r4, 80022de <memset+0x8a>
 80022d2:	b2c9      	uxtb	r1, r1
 80022d4:	441c      	add	r4, r3
 80022d6:	f803 1b01 	strb.w	r1, [r3], #1
 80022da:	42a3      	cmp	r3, r4
 80022dc:	d1fb      	bne.n	80022d6 <memset+0x82>
 80022de:	bd70      	pop	{r4, r5, r6, pc}
 80022e0:	4664      	mov	r4, ip
 80022e2:	4613      	mov	r3, r2
 80022e4:	2c00      	cmp	r4, #0
 80022e6:	d1f4      	bne.n	80022d2 <memset+0x7e>
 80022e8:	e7f9      	b.n	80022de <memset+0x8a>
 80022ea:	4603      	mov	r3, r0
 80022ec:	4614      	mov	r4, r2
 80022ee:	e7c0      	b.n	8002272 <memset+0x1e>
 80022f0:	46a4      	mov	ip, r4
 80022f2:	e7e1      	b.n	80022b8 <memset+0x64>
